ARM GAS  C:\Users\ryan\AppData\Local\Temp\cctRcFiZ.s 			page 1


   1              		.syntax unified
   2              		.cpu cortex-m0
   3              		.fpu softvfp
   4              		.eabi_attribute 20, 1
   5              		.eabi_attribute 21, 1
   6              		.eabi_attribute 23, 3
   7              		.eabi_attribute 24, 1
   8              		.eabi_attribute 25, 1
   9              		.eabi_attribute 26, 1
  10              		.eabi_attribute 30, 4
  11              		.eabi_attribute 34, 0
  12              		.eabi_attribute 18, 4
  13              		.thumb
  14              		.syntax unified
  15              		.file	"binary.c"
  16              		.text
  17              	.Ltext0:
  18              		.cfi_sections	.debug_frame
  19              		.section	.text.blink_zero,"ax",%progbits
  20              		.align	1
  21              		.global	blink_zero
  22              		.code	16
  23              		.thumb_func
  24              		.type	blink_zero, %function
  25              	blink_zero:
  26              	.LFB32:
  27              		.file 1 "binary.c"
   1:binary.c      **** /* ========================================
   2:binary.c      ****  *
   3:binary.c      ****  * Copyright Nullify, 2016
   4:binary.c      ****  * All Rights Reserved
   5:binary.c      ****  * UNPUBLISHED, LICENSED SOFTWARE.
   6:binary.c      ****  *
   7:binary.c      ****  * CONFIDENTIAL AND PROPRIETARY INFORMATION
   8:binary.c      ****  * WHICH IS THE PROPERTY OF NULLIY.
   9:binary.c      ****  *
  10:binary.c      ****  * ========================================
  11:binary.c      **** */
  12:binary.c      **** #include <project.h>
  13:binary.c      **** #include <string.h>
  14:binary.c      **** #include "lightlib.h"
  15:binary.c      **** #include "binary.h"
  16:binary.c      **** #include "state.h"
  17:binary.c      **** 
  18:binary.c      **** void blink_zero(void) {
  28              		.loc 1 18 0
  29              		.cfi_startproc
  30              		@ args = 0, pretend = 0, frame = 0
  31              		@ frame_needed = 0, uses_anonymous_args = 0
  32 0000 10B5     		push	{r4, lr}
  33              		.cfi_def_cfa_offset 8
  34              		.cfi_offset 4, -8
  35              		.cfi_offset 14, -4
  19:binary.c      ****     /* Verify state */
  20:binary.c      ****     if(!verify_state(BINARY)) {
  36              		.loc 1 20 0
  37 0002 0220     		movs	r0, #2
ARM GAS  C:\Users\ryan\AppData\Local\Temp\cctRcFiZ.s 			page 2


  38 0004 FFF7FEFF 		bl	verify_state
  39              	.LVL0:
  40 0008 0028     		cmp	r0, #0
  41 000a 0DD0     		beq	.L1
  42              	.LBB4:
  43              	.LBB5:
  21:binary.c      ****         return;
  22:binary.c      ****     }
  23:binary.c      ****     turn_on(LEFT_LED);
  44              		.loc 1 23 0
  45 000c 0120     		movs	r0, #1
  46 000e FFF7FEFF 		bl	turn_on
  47              	.LVL1:
  24:binary.c      ****     CyDelay(BLINK_DELAY_ON);
  48              		.loc 1 24 0
  49 0012 FA20     		movs	r0, #250
  50 0014 4000     		lsls	r0, r0, #1
  51 0016 FFF7FEFF 		bl	CyDelay
  52              	.LVL2:
  25:binary.c      ****     turn_off(LEFT_LED);
  53              		.loc 1 25 0
  54 001a 0120     		movs	r0, #1
  55 001c FFF7FEFF 		bl	turn_off
  56              	.LVL3:
  26:binary.c      ****     CyDelay(BLINK_DELAY_OFF);
  57              		.loc 1 26 0
  58 0020 FA20     		movs	r0, #250
  59 0022 4000     		lsls	r0, r0, #1
  60 0024 FFF7FEFF 		bl	CyDelay
  61              	.LVL4:
  62              	.L1:
  63              	.LBE5:
  64              	.LBE4:
  27:binary.c      **** }
  65              		.loc 1 27 0
  66              		@ sp needed
  67 0028 10BD     		pop	{r4, pc}
  68              		.cfi_endproc
  69              	.LFE32:
  70              		.size	blink_zero, .-blink_zero
  71              		.section	.text.blink_one,"ax",%progbits
  72              		.align	1
  73              		.global	blink_one
  74              		.code	16
  75              		.thumb_func
  76              		.type	blink_one, %function
  77              	blink_one:
  78              	.LFB33:
  28:binary.c      **** 
  29:binary.c      **** void blink_one(void) {
  79              		.loc 1 29 0
  80              		.cfi_startproc
  81              		@ args = 0, pretend = 0, frame = 0
  82              		@ frame_needed = 0, uses_anonymous_args = 0
  83 0000 10B5     		push	{r4, lr}
  84              		.cfi_def_cfa_offset 8
  85              		.cfi_offset 4, -8
ARM GAS  C:\Users\ryan\AppData\Local\Temp\cctRcFiZ.s 			page 3


  86              		.cfi_offset 14, -4
  30:binary.c      ****     /* Verify state */
  31:binary.c      ****     if(!verify_state(BINARY)) {
  87              		.loc 1 31 0
  88 0002 0220     		movs	r0, #2
  89 0004 FFF7FEFF 		bl	verify_state
  90              	.LVL5:
  91 0008 0028     		cmp	r0, #0
  92 000a 0DD0     		beq	.L7
  93              	.LBB8:
  94              	.LBB9:
  32:binary.c      ****         return;
  33:binary.c      ****     }
  34:binary.c      ****     turn_on(RIGHT_LED);
  95              		.loc 1 34 0
  96 000c 0220     		movs	r0, #2
  97 000e FFF7FEFF 		bl	turn_on
  98              	.LVL6:
  35:binary.c      ****     CyDelay(BLINK_DELAY_ON);
  99              		.loc 1 35 0
 100 0012 FA20     		movs	r0, #250
 101 0014 4000     		lsls	r0, r0, #1
 102 0016 FFF7FEFF 		bl	CyDelay
 103              	.LVL7:
  36:binary.c      ****     turn_off(RIGHT_LED);
 104              		.loc 1 36 0
 105 001a 0220     		movs	r0, #2
 106 001c FFF7FEFF 		bl	turn_off
 107              	.LVL8:
  37:binary.c      ****     CyDelay(BLINK_DELAY_OFF);
 108              		.loc 1 37 0
 109 0020 FA20     		movs	r0, #250
 110 0022 4000     		lsls	r0, r0, #1
 111 0024 FFF7FEFF 		bl	CyDelay
 112              	.LVL9:
 113              	.L7:
 114              	.LBE9:
 115              	.LBE8:
  38:binary.c      **** }
 116              		.loc 1 38 0
 117              		@ sp needed
 118 0028 10BD     		pop	{r4, pc}
 119              		.cfi_endproc
 120              	.LFE33:
 121              		.size	blink_one, .-blink_one
 122              		.section	.text.binary_encode,"ax",%progbits
 123              		.align	1
 124              		.global	binary_encode
 125              		.code	16
 126              		.thumb_func
 127              		.type	binary_encode, %function
 128              	binary_encode:
 129              	.LFB34:
  39:binary.c      **** 
  40:binary.c      **** void binary_encode(char c){
 130              		.loc 1 40 0
 131              		.cfi_startproc
ARM GAS  C:\Users\ryan\AppData\Local\Temp\cctRcFiZ.s 			page 4


 132              		@ args = 0, pretend = 0, frame = 0
 133              		@ frame_needed = 0, uses_anonymous_args = 0
 134              	.LVL10:
 135 0000 10B5     		push	{r4, lr}
 136              		.cfi_def_cfa_offset 8
 137              		.cfi_offset 4, -8
 138              		.cfi_offset 14, -4
 139              		.loc 1 40 0
 140 0002 0400     		movs	r4, r0
  41:binary.c      ****     /* Verify state */
  42:binary.c      ****     if(!verify_state(BINARY)) {
 141              		.loc 1 42 0
 142 0004 0220     		movs	r0, #2
 143              	.LVL11:
 144 0006 FFF7FEFF 		bl	verify_state
 145              	.LVL12:
 146 000a 0028     		cmp	r0, #0
 147 000c 00D1     		bne	.LCB91
 148 000e BCE1     		b	.L12	@long jump
 149              	.LCB91:
 150              	.LVL13:
 151              	.LBB12:
 152              	.LBB13:
  43:binary.c      ****        return;
  44:binary.c      ****     }
  45:binary.c      ****     switch(c) {
 153              		.loc 1 45 0
 154 0010 2000     		movs	r0, r4
 155 0012 3038     		subs	r0, r0, #48
 156 0014 4A28     		cmp	r0, #74
 157 0016 00D9     		bls	.LCB98
 158 0018 B7E1     		b	.L12	@long jump
 159              	.LCB98:
 160 001a FFF7FEFF 		bl	__gnu_thumb1_case_uhi
 161              	.L15:
 162 001e 2D01     		.2byte	(.L14-.L15)/2
 163 0020 3801     		.2byte	(.L16-.L15)/2
 164 0022 4301     		.2byte	(.L17-.L15)/2
 165 0024 5001     		.2byte	(.L18-.L15)/2
 166 0026 5D01     		.2byte	(.L19-.L15)/2
 167 0028 6A01     		.2byte	(.L20-.L15)/2
 168 002a 7701     		.2byte	(.L21-.L15)/2
 169 002c 8601     		.2byte	(.L22-.L15)/2
 170 002e 9501     		.2byte	(.L23-.L15)/2
 171 0030 A601     		.2byte	(.L24-.L15)/2
 172 0032 B601     		.2byte	(.L12-.L15)/2
 173 0034 B601     		.2byte	(.L12-.L15)/2
 174 0036 B601     		.2byte	(.L12-.L15)/2
 175 0038 B601     		.2byte	(.L12-.L15)/2
 176 003a B601     		.2byte	(.L12-.L15)/2
 177 003c B601     		.2byte	(.L12-.L15)/2
 178 003e B601     		.2byte	(.L12-.L15)/2
 179 0040 4B00     		.2byte	(.L25-.L15)/2
 180 0042 5400     		.2byte	(.L26-.L15)/2
 181 0044 5D00     		.2byte	(.L27-.L15)/2
 182 0046 6600     		.2byte	(.L28-.L15)/2
 183 0048 6F00     		.2byte	(.L29-.L15)/2
ARM GAS  C:\Users\ryan\AppData\Local\Temp\cctRcFiZ.s 			page 5


 184 004a 7800     		.2byte	(.L30-.L15)/2
 185 004c 8100     		.2byte	(.L31-.L15)/2
 186 004e 8A00     		.2byte	(.L32-.L15)/2
 187 0050 9300     		.2byte	(.L33-.L15)/2
 188 0052 9C00     		.2byte	(.L34-.L15)/2
 189 0054 A500     		.2byte	(.L35-.L15)/2
 190 0056 B000     		.2byte	(.L36-.L15)/2
 191 0058 BB00     		.2byte	(.L37-.L15)/2
 192 005a C600     		.2byte	(.L38-.L15)/2
 193 005c D100     		.2byte	(.L39-.L15)/2
 194 005e DC00     		.2byte	(.L40-.L15)/2
 195 0060 E300     		.2byte	(.L41-.L15)/2
 196 0062 EA00     		.2byte	(.L42-.L15)/2
 197 0064 F100     		.2byte	(.L43-.L15)/2
 198 0066 F800     		.2byte	(.L44-.L15)/2
 199 0068 FF00     		.2byte	(.L45-.L15)/2
 200 006a 0601     		.2byte	(.L46-.L15)/2
 201 006c 0D01     		.2byte	(.L47-.L15)/2
 202 006e 1401     		.2byte	(.L48-.L15)/2
 203 0070 1B01     		.2byte	(.L49-.L15)/2
 204 0072 2201     		.2byte	(.L50-.L15)/2
 205 0074 B601     		.2byte	(.L12-.L15)/2
 206 0076 B601     		.2byte	(.L12-.L15)/2
 207 0078 B601     		.2byte	(.L12-.L15)/2
 208 007a B601     		.2byte	(.L12-.L15)/2
 209 007c B601     		.2byte	(.L12-.L15)/2
 210 007e B601     		.2byte	(.L12-.L15)/2
 211 0080 4B00     		.2byte	(.L25-.L15)/2
 212 0082 5400     		.2byte	(.L26-.L15)/2
 213 0084 5D00     		.2byte	(.L27-.L15)/2
 214 0086 6600     		.2byte	(.L28-.L15)/2
 215 0088 6F00     		.2byte	(.L29-.L15)/2
 216 008a 7800     		.2byte	(.L30-.L15)/2
 217 008c 8100     		.2byte	(.L31-.L15)/2
 218 008e 8A00     		.2byte	(.L32-.L15)/2
 219 0090 9300     		.2byte	(.L33-.L15)/2
 220 0092 9C00     		.2byte	(.L34-.L15)/2
 221 0094 A500     		.2byte	(.L35-.L15)/2
 222 0096 B000     		.2byte	(.L36-.L15)/2
 223 0098 BB00     		.2byte	(.L37-.L15)/2
 224 009a C600     		.2byte	(.L38-.L15)/2
 225 009c D100     		.2byte	(.L39-.L15)/2
 226 009e DC00     		.2byte	(.L40-.L15)/2
 227 00a0 E300     		.2byte	(.L41-.L15)/2
 228 00a2 EA00     		.2byte	(.L42-.L15)/2
 229 00a4 F100     		.2byte	(.L43-.L15)/2
 230 00a6 F800     		.2byte	(.L44-.L15)/2
 231 00a8 FF00     		.2byte	(.L45-.L15)/2
 232 00aa 0601     		.2byte	(.L46-.L15)/2
 233 00ac 0D01     		.2byte	(.L47-.L15)/2
 234 00ae 1401     		.2byte	(.L48-.L15)/2
 235 00b0 1B01     		.2byte	(.L49-.L15)/2
 236 00b2 2201     		.2byte	(.L50-.L15)/2
 237              		.p2align 1
 238              	.L25:
  46:binary.c      ****       case 'A':
  47:binary.c      ****       case 'a':
ARM GAS  C:\Users\ryan\AppData\Local\Temp\cctRcFiZ.s 			page 6


  48:binary.c      ****         blink_zero();
 239              		.loc 1 48 0
 240 00b4 FFF7FEFF 		bl	blink_zero
 241              	.LVL14:
  49:binary.c      ****         blink_one();
 242              		.loc 1 49 0
 243 00b8 FFF7FEFF 		bl	blink_one
 244              	.LVL15:
  50:binary.c      ****         blink_zero();
 245              		.loc 1 50 0
 246 00bc FFF7FEFF 		bl	blink_zero
 247              	.LVL16:
  51:binary.c      ****         blink_zero();
 248              		.loc 1 51 0
 249 00c0 FFF7FEFF 		bl	blink_zero
 250              	.LVL17:
 251 00c4 EBE0     		b	.L72
 252              	.L26:
  52:binary.c      ****         blink_zero();
  53:binary.c      ****         blink_zero();
  54:binary.c      ****         blink_zero();
  55:binary.c      ****         blink_one();
  56:binary.c      ****         break;
  57:binary.c      ****       case 'B':
  58:binary.c      ****       case 'b':
  59:binary.c      ****         blink_zero();
 253              		.loc 1 59 0
 254 00c6 FFF7FEFF 		bl	blink_zero
 255              	.LVL18:
  60:binary.c      ****         blink_one();
 256              		.loc 1 60 0
 257 00ca FFF7FEFF 		bl	blink_one
 258              	.LVL19:
  61:binary.c      ****         blink_zero();
 259              		.loc 1 61 0
 260 00ce FFF7FEFF 		bl	blink_zero
 261              	.LVL20:
  62:binary.c      ****         blink_zero();
 262              		.loc 1 62 0
 263 00d2 FFF7FEFF 		bl	blink_zero
 264              	.LVL21:
 265 00d6 EDE0     		b	.L81
 266              	.L27:
  63:binary.c      ****         blink_zero();
  64:binary.c      ****         blink_zero();
  65:binary.c      ****         blink_one();
  66:binary.c      ****         blink_zero();
  67:binary.c      ****         break;
  68:binary.c      ****       case 'C':
  69:binary.c      ****       case 'c':
  70:binary.c      ****         blink_zero();
 267              		.loc 1 70 0
 268 00d8 FFF7FEFF 		bl	blink_zero
 269              	.LVL22:
  71:binary.c      ****         blink_one();
 270              		.loc 1 71 0
 271 00dc FFF7FEFF 		bl	blink_one
ARM GAS  C:\Users\ryan\AppData\Local\Temp\cctRcFiZ.s 			page 7


 272              	.LVL23:
  72:binary.c      ****         blink_zero();
 273              		.loc 1 72 0
 274 00e0 FFF7FEFF 		bl	blink_zero
 275              	.LVL24:
  73:binary.c      ****         blink_zero();
 276              		.loc 1 73 0
 277 00e4 FFF7FEFF 		bl	blink_zero
 278              	.LVL25:
 279 00e8 F1E0     		b	.L84
 280              	.L28:
  74:binary.c      ****         blink_zero();
  75:binary.c      ****         blink_zero();
  76:binary.c      ****         blink_one();
  77:binary.c      ****         blink_one();
  78:binary.c      ****         break;
  79:binary.c      ****       case 'D':
  80:binary.c      ****       case 'd':
  81:binary.c      ****         blink_zero();
 281              		.loc 1 81 0
 282 00ea FFF7FEFF 		bl	blink_zero
 283              	.LVL26:
  82:binary.c      ****         blink_one();
 284              		.loc 1 82 0
 285 00ee FFF7FEFF 		bl	blink_one
 286              	.LVL27:
  83:binary.c      ****         blink_zero();
 287              		.loc 1 83 0
 288 00f2 FFF7FEFF 		bl	blink_zero
 289              	.LVL28:
  84:binary.c      ****         blink_zero();
 290              		.loc 1 84 0
 291 00f6 FFF7FEFF 		bl	blink_zero
 292              	.LVL29:
 293 00fa F5E0     		b	.L66
 294              	.L29:
  85:binary.c      ****         blink_zero();
  86:binary.c      ****         blink_one();
  87:binary.c      ****         blink_zero();
  88:binary.c      ****         blink_zero();
  89:binary.c      ****         break;
  90:binary.c      ****        case 'E':
  91:binary.c      ****        case 'e':
  92:binary.c      ****         blink_zero();
 295              		.loc 1 92 0
 296 00fc FFF7FEFF 		bl	blink_zero
 297              	.LVL30:
  93:binary.c      ****         blink_one();
 298              		.loc 1 93 0
 299 0100 FFF7FEFF 		bl	blink_one
 300              	.LVL31:
  94:binary.c      ****         blink_zero();
 301              		.loc 1 94 0
 302 0104 FFF7FEFF 		bl	blink_zero
 303              	.LVL32:
  95:binary.c      ****         blink_zero();
 304              		.loc 1 95 0
ARM GAS  C:\Users\ryan\AppData\Local\Temp\cctRcFiZ.s 			page 8


 305 0108 FFF7FEFF 		bl	blink_zero
 306              	.LVL33:
 307 010c F9E0     		b	.L75
 308              	.L30:
  96:binary.c      ****         blink_zero();
  97:binary.c      ****         blink_one();
  98:binary.c      ****         blink_zero();
  99:binary.c      ****         blink_one();
 100:binary.c      ****         break;
 101:binary.c      ****        case 'F':
 102:binary.c      ****        case 'f':
 103:binary.c      ****         blink_zero();
 309              		.loc 1 103 0
 310 010e FFF7FEFF 		bl	blink_zero
 311              	.LVL34:
 104:binary.c      ****         blink_one();
 312              		.loc 1 104 0
 313 0112 FFF7FEFF 		bl	blink_one
 314              	.LVL35:
 105:binary.c      ****         blink_zero();
 315              		.loc 1 105 0
 316 0116 FFF7FEFF 		bl	blink_zero
 317              	.LVL36:
 106:binary.c      ****         blink_zero();
 318              		.loc 1 106 0
 319 011a FFF7FEFF 		bl	blink_zero
 320              	.LVL37:
 321 011e FDE0     		b	.L69
 322              	.L31:
 107:binary.c      ****         blink_zero();
 108:binary.c      ****         blink_one();
 109:binary.c      ****         blink_one();
 110:binary.c      ****         blink_zero();
 111:binary.c      ****         break;
 112:binary.c      ****        case 'G':
 113:binary.c      ****        case 'g':
 114:binary.c      ****         blink_zero();
 323              		.loc 1 114 0
 324 0120 FFF7FEFF 		bl	blink_zero
 325              	.LVL38:
 115:binary.c      ****         blink_one();
 326              		.loc 1 115 0
 327 0124 FFF7FEFF 		bl	blink_one
 328              	.LVL39:
 116:binary.c      ****         blink_zero();
 329              		.loc 1 116 0
 330 0128 FFF7FEFF 		bl	blink_zero
 331              	.LVL40:
 117:binary.c      ****         blink_zero();
 332              		.loc 1 117 0
 333 012c FFF7FEFF 		bl	blink_zero
 334              	.LVL41:
 335 0130 03E1     		b	.L78
 336              	.L32:
 118:binary.c      ****         blink_zero();
 119:binary.c      ****         blink_one();
 120:binary.c      ****         blink_one();
ARM GAS  C:\Users\ryan\AppData\Local\Temp\cctRcFiZ.s 			page 9


 121:binary.c      ****         blink_one();
 122:binary.c      ****         break;
 123:binary.c      ****        case 'H':
 124:binary.c      ****        case 'h':
 125:binary.c      ****         blink_zero();
 337              		.loc 1 125 0
 338 0132 FFF7FEFF 		bl	blink_zero
 339              	.LVL42:
 126:binary.c      ****         blink_one();
 340              		.loc 1 126 0
 341 0136 FFF7FEFF 		bl	blink_one
 342              	.LVL43:
 127:binary.c      ****         blink_zero();
 343              		.loc 1 127 0
 344 013a FFF7FEFF 		bl	blink_zero
 345              	.LVL44:
 128:binary.c      ****         blink_zero();
 346              		.loc 1 128 0
 347 013e FFF7FEFF 		bl	blink_zero
 348              	.LVL45:
 349 0142 09E1     		b	.L63
 350              	.L33:
 129:binary.c      ****         blink_one();
 130:binary.c      ****         blink_zero();
 131:binary.c      ****         blink_zero();
 132:binary.c      ****         blink_zero();
 133:binary.c      ****         break;
 134:binary.c      ****        case 'I':
 135:binary.c      ****        case 'i':
 136:binary.c      ****         blink_zero();
 351              		.loc 1 136 0
 352 0144 FFF7FEFF 		bl	blink_zero
 353              	.LVL46:
 137:binary.c      ****         blink_one();
 354              		.loc 1 137 0
 355 0148 FFF7FEFF 		bl	blink_one
 356              	.LVL47:
 138:binary.c      ****         blink_zero();
 357              		.loc 1 138 0
 358 014c FFF7FEFF 		bl	blink_zero
 359              	.LVL48:
 139:binary.c      ****         blink_zero();
 360              		.loc 1 139 0
 361 0150 FFF7FEFF 		bl	blink_zero
 362              	.LVL49:
 363 0154 11E1     		b	.L62
 364              	.L34:
 140:binary.c      ****         blink_one();
 141:binary.c      ****         blink_zero();
 142:binary.c      ****         blink_zero();
 143:binary.c      ****         blink_one();
 144:binary.c      ****         break;
 145:binary.c      ****        case 'J':
 146:binary.c      ****        case 'j':
 147:binary.c      ****         blink_zero();
 365              		.loc 1 147 0
 366 0156 FFF7FEFF 		bl	blink_zero
ARM GAS  C:\Users\ryan\AppData\Local\Temp\cctRcFiZ.s 			page 10


 367              	.LVL50:
 148:binary.c      ****         blink_one();
 368              		.loc 1 148 0
 369 015a FFF7FEFF 		bl	blink_one
 370              	.LVL51:
 149:binary.c      ****         blink_zero();
 371              		.loc 1 149 0
 372 015e FFF7FEFF 		bl	blink_zero
 373              	.LVL52:
 150:binary.c      ****         blink_zero();
 374              		.loc 1 150 0
 375 0162 FFF7FEFF 		bl	blink_zero
 376              	.LVL53:
 377 0166 84E0     		b	.L87
 378              	.L35:
 151:binary.c      ****         blink_one();
 152:binary.c      ****         blink_zero();
 153:binary.c      ****         blink_one();
 154:binary.c      ****         blink_zero();
 155:binary.c      ****         break;
 156:binary.c      ****        case 'K':
 157:binary.c      ****        case 'k':
 158:binary.c      ****         blink_zero();
 379              		.loc 1 158 0
 380 0168 FFF7FEFF 		bl	blink_zero
 381              	.LVL54:
 159:binary.c      ****         blink_one();
 382              		.loc 1 159 0
 383 016c FFF7FEFF 		bl	blink_one
 384              	.LVL55:
 160:binary.c      ****         blink_zero();
 385              		.loc 1 160 0
 386 0170 FFF7FEFF 		bl	blink_zero
 387              	.LVL56:
 161:binary.c      ****         blink_zero();
 388              		.loc 1 161 0
 389 0174 FFF7FEFF 		bl	blink_zero
 390              	.LVL57:
 162:binary.c      ****         blink_one();
 391              		.loc 1 162 0
 392 0178 FFF7FEFF 		bl	blink_one
 393              	.LVL58:
 394 017c A9E0     		b	.L86
 395              	.L36:
 163:binary.c      ****         blink_zero();
 164:binary.c      ****         blink_one();
 165:binary.c      ****         blink_one();
 166:binary.c      ****         break;
 167:binary.c      ****        case 'L':
 168:binary.c      ****        case 'l':
 169:binary.c      ****         blink_zero();
 396              		.loc 1 169 0
 397 017e FFF7FEFF 		bl	blink_zero
 398              	.LVL59:
 170:binary.c      ****         blink_one();
 399              		.loc 1 170 0
 400 0182 FFF7FEFF 		bl	blink_one
ARM GAS  C:\Users\ryan\AppData\Local\Temp\cctRcFiZ.s 			page 11


 401              	.LVL60:
 171:binary.c      ****         blink_zero();
 402              		.loc 1 171 0
 403 0186 FFF7FEFF 		bl	blink_zero
 404              	.LVL61:
 172:binary.c      ****         blink_zero();
 405              		.loc 1 172 0
 406 018a FFF7FEFF 		bl	blink_zero
 407              	.LVL62:
 173:binary.c      ****         blink_one();
 408              		.loc 1 173 0
 409 018e FFF7FEFF 		bl	blink_one
 410              	.LVL63:
 411 0192 ABE0     		b	.L67
 412              	.L37:
 174:binary.c      ****         blink_one();
 175:binary.c      ****         blink_zero();
 176:binary.c      ****         blink_zero();
 177:binary.c      ****         break;
 178:binary.c      ****        case 'M':
 179:binary.c      ****        case 'm':
 180:binary.c      ****         blink_zero();
 413              		.loc 1 180 0
 414 0194 FFF7FEFF 		bl	blink_zero
 415              	.LVL64:
 181:binary.c      ****         blink_one();
 416              		.loc 1 181 0
 417 0198 FFF7FEFF 		bl	blink_one
 418              	.LVL65:
 182:binary.c      ****         blink_zero();
 419              		.loc 1 182 0
 420 019c FFF7FEFF 		bl	blink_zero
 421              	.LVL66:
 183:binary.c      ****         blink_zero();
 422              		.loc 1 183 0
 423 01a0 FFF7FEFF 		bl	blink_zero
 424              	.LVL67:
 184:binary.c      ****         blink_one();
 425              		.loc 1 184 0
 426 01a4 FFF7FEFF 		bl	blink_one
 427              	.LVL68:
 428 01a8 ADE0     		b	.L76
 429              	.L38:
 185:binary.c      ****         blink_one();
 186:binary.c      ****         blink_zero();
 187:binary.c      ****         blink_one();
 188:binary.c      ****         break;
 189:binary.c      ****        case 'N':
 190:binary.c      ****        case 'n':
 191:binary.c      ****         blink_zero();
 430              		.loc 1 191 0
 431 01aa FFF7FEFF 		bl	blink_zero
 432              	.LVL69:
 192:binary.c      ****         blink_one();
 433              		.loc 1 192 0
 434 01ae FFF7FEFF 		bl	blink_one
 435              	.LVL70:
ARM GAS  C:\Users\ryan\AppData\Local\Temp\cctRcFiZ.s 			page 12


 193:binary.c      ****         blink_zero();
 436              		.loc 1 193 0
 437 01b2 FFF7FEFF 		bl	blink_zero
 438              	.LVL71:
 194:binary.c      ****         blink_zero();
 439              		.loc 1 194 0
 440 01b6 FFF7FEFF 		bl	blink_zero
 441              	.LVL72:
 195:binary.c      ****         blink_one();
 442              		.loc 1 195 0
 443 01ba FFF7FEFF 		bl	blink_one
 444              	.LVL73:
 445 01be AFE0     		b	.L70
 446              	.L39:
 196:binary.c      ****         blink_one();
 197:binary.c      ****         blink_one();
 198:binary.c      ****         blink_zero();
 199:binary.c      ****         break;
 200:binary.c      ****        case 'O':
 201:binary.c      ****        case 'o':
 202:binary.c      ****         blink_zero();
 447              		.loc 1 202 0
 448 01c0 FFF7FEFF 		bl	blink_zero
 449              	.LVL74:
 203:binary.c      ****         blink_one();
 450              		.loc 1 203 0
 451 01c4 FFF7FEFF 		bl	blink_one
 452              	.LVL75:
 204:binary.c      ****         blink_zero();
 453              		.loc 1 204 0
 454 01c8 FFF7FEFF 		bl	blink_zero
 455              	.LVL76:
 205:binary.c      ****         blink_zero();
 456              		.loc 1 205 0
 457 01cc FFF7FEFF 		bl	blink_zero
 458              	.LVL77:
 206:binary.c      ****         blink_one();
 459              		.loc 1 206 0
 460 01d0 FFF7FEFF 		bl	blink_one
 461              	.LVL78:
 462 01d4 B3E0     		b	.L79
 463              	.L40:
 207:binary.c      ****         blink_one();
 208:binary.c      ****         blink_one();
 209:binary.c      ****         blink_one();
 210:binary.c      ****         break;
 211:binary.c      ****        case 'P':
 212:binary.c      ****        case 'p':
 213:binary.c      ****         blink_zero();
 464              		.loc 1 213 0
 465 01d6 FFF7FEFF 		bl	blink_zero
 466              	.LVL79:
 214:binary.c      ****         blink_one();
 467              		.loc 1 214 0
 468 01da FFF7FEFF 		bl	blink_one
 469              	.LVL80:
 215:binary.c      ****         blink_zero();
ARM GAS  C:\Users\ryan\AppData\Local\Temp\cctRcFiZ.s 			page 13


 470              		.loc 1 215 0
 471 01de FFF7FEFF 		bl	blink_zero
 472              	.LVL81:
 473 01e2 4FE0     		b	.L64
 474              	.L41:
 216:binary.c      ****         blink_one();
 217:binary.c      ****         blink_zero();
 218:binary.c      ****         blink_zero();
 219:binary.c      ****         blink_zero();
 220:binary.c      ****         blink_zero();
 221:binary.c      ****         break;
 222:binary.c      ****        case 'Q':
 223:binary.c      ****        case 'q':
 224:binary.c      ****         blink_zero();
 475              		.loc 1 224 0
 476 01e4 FFF7FEFF 		bl	blink_zero
 477              	.LVL82:
 225:binary.c      ****         blink_one();
 478              		.loc 1 225 0
 479 01e8 FFF7FEFF 		bl	blink_one
 480              	.LVL83:
 226:binary.c      ****         blink_zero();
 481              		.loc 1 226 0
 482 01ec FFF7FEFF 		bl	blink_zero
 483              	.LVL84:
 484 01f0 53E0     		b	.L73
 485              	.L42:
 227:binary.c      ****         blink_one();
 228:binary.c      ****         blink_zero();
 229:binary.c      ****         blink_zero();
 230:binary.c      ****         blink_zero();
 231:binary.c      ****         blink_one();
 232:binary.c      ****         break;
 233:binary.c      ****        case 'R':
 234:binary.c      ****        case 'r':
 235:binary.c      ****         blink_zero();
 486              		.loc 1 235 0
 487 01f2 FFF7FEFF 		bl	blink_zero
 488              	.LVL85:
 236:binary.c      ****         blink_one();
 489              		.loc 1 236 0
 490 01f6 FFF7FEFF 		bl	blink_one
 491              	.LVL86:
 237:binary.c      ****         blink_zero();
 492              		.loc 1 237 0
 493 01fa FFF7FEFF 		bl	blink_zero
 494              	.LVL87:
 495 01fe 57E0     		b	.L83
 496              	.L43:
 238:binary.c      ****         blink_one();
 239:binary.c      ****         blink_zero();
 240:binary.c      ****         blink_zero();
 241:binary.c      ****         blink_one();
 242:binary.c      ****         blink_zero();
 243:binary.c      ****         break;
 244:binary.c      ****        case 'S':
 245:binary.c      ****        case 's':
ARM GAS  C:\Users\ryan\AppData\Local\Temp\cctRcFiZ.s 			page 14


 246:binary.c      ****         blink_zero();
 497              		.loc 1 246 0
 498 0200 FFF7FEFF 		bl	blink_zero
 499              	.LVL88:
 247:binary.c      ****         blink_one();
 500              		.loc 1 247 0
 501 0204 FFF7FEFF 		bl	blink_one
 502              	.LVL89:
 248:binary.c      ****         blink_zero();
 503              		.loc 1 248 0
 504 0208 FFF7FEFF 		bl	blink_zero
 505              	.LVL90:
 506 020c 5DE0     		b	.L85
 507              	.L44:
 249:binary.c      ****         blink_one();
 250:binary.c      ****         blink_zero();
 251:binary.c      ****         blink_zero();
 252:binary.c      ****         blink_one();
 253:binary.c      ****         blink_one();
 254:binary.c      ****         break;
 255:binary.c      ****        case 'T':
 256:binary.c      ****        case 't':
 257:binary.c      ****         blink_zero();
 508              		.loc 1 257 0
 509 020e FFF7FEFF 		bl	blink_zero
 510              	.LVL91:
 258:binary.c      ****         blink_one();
 511              		.loc 1 258 0
 512 0212 FFF7FEFF 		bl	blink_one
 513              	.LVL92:
 259:binary.c      ****         blink_zero();
 514              		.loc 1 259 0
 515 0216 FFF7FEFF 		bl	blink_zero
 516              	.LVL93:
 517 021a 63E0     		b	.L65
 518              	.L45:
 260:binary.c      ****         blink_one();
 261:binary.c      ****         blink_zero();
 262:binary.c      ****         blink_one();
 263:binary.c      ****         blink_zero();
 264:binary.c      ****         blink_zero();
 265:binary.c      ****         break;
 266:binary.c      ****        case 'U':
 267:binary.c      ****        case 'u':
 268:binary.c      ****         blink_zero();
 519              		.loc 1 268 0
 520 021c FFF7FEFF 		bl	blink_zero
 521              	.LVL94:
 269:binary.c      ****         blink_one();
 522              		.loc 1 269 0
 523 0220 FFF7FEFF 		bl	blink_one
 524              	.LVL95:
 270:binary.c      ****         blink_zero();
 525              		.loc 1 270 0
 526 0224 FFF7FEFF 		bl	blink_zero
 527              	.LVL96:
 528 0228 69E0     		b	.L74
ARM GAS  C:\Users\ryan\AppData\Local\Temp\cctRcFiZ.s 			page 15


 529              	.L46:
 271:binary.c      ****         blink_one();
 272:binary.c      ****         blink_zero();
 273:binary.c      ****         blink_one();
 274:binary.c      ****         blink_zero();
 275:binary.c      ****         blink_one();
 276:binary.c      ****         break;
 277:binary.c      ****        case 'V':
 278:binary.c      ****        case 'v':
 279:binary.c      ****         blink_zero();
 530              		.loc 1 279 0
 531 022a FFF7FEFF 		bl	blink_zero
 532              	.LVL97:
 280:binary.c      ****         blink_one();
 533              		.loc 1 280 0
 534 022e FFF7FEFF 		bl	blink_one
 535              	.LVL98:
 281:binary.c      ****         blink_zero();
 536              		.loc 1 281 0
 537 0232 FFF7FEFF 		bl	blink_zero
 538              	.LVL99:
 539 0236 6FE0     		b	.L71
 540              	.L47:
 282:binary.c      ****         blink_one();
 283:binary.c      ****         blink_zero();
 284:binary.c      ****         blink_one();
 285:binary.c      ****         blink_one();
 286:binary.c      ****         blink_zero();
 287:binary.c      ****         break;
 288:binary.c      ****        case 'W':
 289:binary.c      ****        case 'w':
 290:binary.c      ****         blink_zero();
 541              		.loc 1 290 0
 542 0238 FFF7FEFF 		bl	blink_zero
 543              	.LVL100:
 291:binary.c      ****         blink_one();
 544              		.loc 1 291 0
 545 023c FFF7FEFF 		bl	blink_one
 546              	.LVL101:
 292:binary.c      ****         blink_zero();
 547              		.loc 1 292 0
 548 0240 FFF7FEFF 		bl	blink_zero
 549              	.LVL102:
 550 0244 77E0     		b	.L80
 551              	.L48:
 293:binary.c      ****         blink_one();
 294:binary.c      ****         blink_zero();
 295:binary.c      ****         blink_one();
 296:binary.c      ****         blink_one();
 297:binary.c      ****         blink_one();
 298:binary.c      ****         break;
 299:binary.c      ****        case 'X':
 300:binary.c      ****        case 'x':
 301:binary.c      ****         blink_zero();
 552              		.loc 1 301 0
 553 0246 FFF7FEFF 		bl	blink_zero
 554              	.LVL103:
ARM GAS  C:\Users\ryan\AppData\Local\Temp\cctRcFiZ.s 			page 16


 302:binary.c      ****         blink_one();
 555              		.loc 1 302 0
 556 024a FFF7FEFF 		bl	blink_one
 557              	.LVL104:
 303:binary.c      ****         blink_zero();
 558              		.loc 1 303 0
 559 024e FFF7FEFF 		bl	blink_zero
 560              	.LVL105:
 561 0252 7FE0     		b	.L61
 562              	.L49:
 304:binary.c      ****         blink_one();
 305:binary.c      ****         blink_one();
 306:binary.c      ****         blink_zero();
 307:binary.c      ****         blink_zero();
 308:binary.c      ****         blink_zero();
 309:binary.c      ****         break;
 310:binary.c      ****        case 'Y':
 311:binary.c      ****        case 'y':
 312:binary.c      ****         blink_zero();
 563              		.loc 1 312 0
 564 0254 FFF7FEFF 		bl	blink_zero
 565              	.LVL106:
 313:binary.c      ****         blink_one();
 566              		.loc 1 313 0
 567 0258 FFF7FEFF 		bl	blink_one
 568              	.LVL107:
 314:binary.c      ****         blink_zero();
 569              		.loc 1 314 0
 570 025c FFF7FEFF 		bl	blink_zero
 571              	.LVL108:
 572 0260 89E0     		b	.L60
 573              	.L50:
 315:binary.c      ****         blink_one();
 316:binary.c      ****         blink_one();
 317:binary.c      ****         blink_zero();
 318:binary.c      ****         blink_zero();
 319:binary.c      ****         blink_one();
 320:binary.c      ****         break;
 321:binary.c      ****        case 'Z':
 322:binary.c      ****        case 'z':
 323:binary.c      ****         blink_zero();
 574              		.loc 1 323 0
 575 0262 FFF7FEFF 		bl	blink_zero
 576              	.LVL109:
 324:binary.c      ****         blink_one();
 577              		.loc 1 324 0
 578 0266 FFF7FEFF 		bl	blink_one
 579              	.LVL110:
 325:binary.c      ****         blink_zero();
 580              		.loc 1 325 0
 581 026a FFF7FEFF 		bl	blink_zero
 582              	.LVL111:
 326:binary.c      ****         blink_one();
 583              		.loc 1 326 0
 584 026e FFF7FEFF 		bl	blink_one
 585              	.LVL112:
 586              	.L87:
ARM GAS  C:\Users\ryan\AppData\Local\Temp\cctRcFiZ.s 			page 17


 327:binary.c      ****         blink_one();
 587              		.loc 1 327 0
 588 0272 FFF7FEFF 		bl	blink_one
 589              	.LVL113:
 590 0276 1FE0     		b	.L82
 591              	.L14:
 328:binary.c      ****         blink_zero();
 329:binary.c      ****         blink_one();
 330:binary.c      ****         blink_zero();
 331:binary.c      ****         break;
 332:binary.c      ****        case '0':
 333:binary.c      ****         blink_zero();
 592              		.loc 1 333 0
 593 0278 FFF7FEFF 		bl	blink_zero
 594              	.LVL114:
 334:binary.c      ****         blink_zero();
 595              		.loc 1 334 0
 596 027c FFF7FEFF 		bl	blink_zero
 597              	.LVL115:
 335:binary.c      ****         blink_one();
 598              		.loc 1 335 0
 599 0280 FFF7FEFF 		bl	blink_one
 600              	.LVL116:
 601              	.L64:
 336:binary.c      ****         blink_one();
 602              		.loc 1 336 0
 603 0284 FFF7FEFF 		bl	blink_one
 604              	.LVL117:
 337:binary.c      ****         blink_zero();
 605              		.loc 1 337 0
 606 0288 FFF7FEFF 		bl	blink_zero
 607              	.LVL118:
 608 028c 66E0     		b	.L59
 609              	.L16:
 338:binary.c      ****         blink_zero();
 339:binary.c      ****         blink_zero();
 340:binary.c      ****         blink_zero();
 341:binary.c      ****         break;
 342:binary.c      ****        case '1':
 343:binary.c      ****         blink_zero();
 610              		.loc 1 343 0
 611 028e FFF7FEFF 		bl	blink_zero
 612              	.LVL119:
 344:binary.c      ****         blink_zero();
 613              		.loc 1 344 0
 614 0292 FFF7FEFF 		bl	blink_zero
 615              	.LVL120:
 345:binary.c      ****         blink_one();
 616              		.loc 1 345 0
 617 0296 FFF7FEFF 		bl	blink_one
 618              	.LVL121:
 619              	.L73:
 346:binary.c      ****         blink_one();
 620              		.loc 1 346 0
 621 029a FFF7FEFF 		bl	blink_one
 622              	.LVL122:
 623              	.L72:
ARM GAS  C:\Users\ryan\AppData\Local\Temp\cctRcFiZ.s 			page 18


 347:binary.c      ****         blink_zero();
 624              		.loc 1 347 0
 625 029e FFF7FEFF 		bl	blink_zero
 626              	.LVL123:
 627 02a2 6CE0     		b	.L55
 628              	.L17:
 348:binary.c      ****         blink_zero();
 349:binary.c      ****         blink_zero();
 350:binary.c      ****         blink_one();
 351:binary.c      ****         break;
 352:binary.c      ****        case '2':
 353:binary.c      ****         blink_zero();
 629              		.loc 1 353 0
 630 02a4 FFF7FEFF 		bl	blink_zero
 631              	.LVL124:
 354:binary.c      ****         blink_zero();
 632              		.loc 1 354 0
 633 02a8 FFF7FEFF 		bl	blink_zero
 634              	.LVL125:
 355:binary.c      ****         blink_one();
 635              		.loc 1 355 0
 636 02ac FFF7FEFF 		bl	blink_one
 637              	.LVL126:
 638              	.L83:
 356:binary.c      ****         blink_one();
 639              		.loc 1 356 0
 640 02b0 FFF7FEFF 		bl	blink_one
 641              	.LVL127:
 642              	.L81:
 357:binary.c      ****         blink_zero();
 643              		.loc 1 357 0
 644 02b4 FFF7FEFF 		bl	blink_zero
 645              	.LVL128:
 646              	.L82:
 358:binary.c      ****         blink_zero();
 647              		.loc 1 358 0
 648 02b8 FFF7FEFF 		bl	blink_zero
 649              	.LVL129:
 650 02bc 32E0     		b	.L68
 651              	.L18:
 359:binary.c      ****         blink_one();
 360:binary.c      ****         blink_zero();
 361:binary.c      ****         break;
 362:binary.c      ****        case '3':
 363:binary.c      ****         blink_zero();
 652              		.loc 1 363 0
 653 02be FFF7FEFF 		bl	blink_zero
 654              	.LVL130:
 364:binary.c      ****         blink_zero();
 655              		.loc 1 364 0
 656 02c2 FFF7FEFF 		bl	blink_zero
 657              	.LVL131:
 365:binary.c      ****         blink_one();
 658              		.loc 1 365 0
 659 02c6 FFF7FEFF 		bl	blink_one
 660              	.LVL132:
 661              	.L85:
ARM GAS  C:\Users\ryan\AppData\Local\Temp\cctRcFiZ.s 			page 19


 366:binary.c      ****         blink_one();
 662              		.loc 1 366 0
 663 02ca FFF7FEFF 		bl	blink_one
 664              	.LVL133:
 665              	.L84:
 367:binary.c      ****         blink_zero();
 666              		.loc 1 367 0
 667 02ce FFF7FEFF 		bl	blink_zero
 668              	.LVL134:
 669              	.L86:
 368:binary.c      ****         blink_zero();
 670              		.loc 1 368 0
 671 02d2 FFF7FEFF 		bl	blink_zero
 672              	.LVL135:
 673 02d6 34E0     		b	.L77
 674              	.L19:
 369:binary.c      ****         blink_one();
 370:binary.c      ****         blink_one();
 371:binary.c      ****         break;
 372:binary.c      ****        case '4':
 373:binary.c      ****         blink_zero();
 675              		.loc 1 373 0
 676 02d8 FFF7FEFF 		bl	blink_zero
 677              	.LVL136:
 374:binary.c      ****         blink_zero();
 678              		.loc 1 374 0
 679 02dc FFF7FEFF 		bl	blink_zero
 680              	.LVL137:
 375:binary.c      ****         blink_one();
 681              		.loc 1 375 0
 682 02e0 FFF7FEFF 		bl	blink_one
 683              	.LVL138:
 684              	.L65:
 376:binary.c      ****         blink_one();
 685              		.loc 1 376 0
 686 02e4 FFF7FEFF 		bl	blink_one
 687              	.LVL139:
 688              	.L66:
 377:binary.c      ****         blink_zero();
 689              		.loc 1 377 0
 690 02e8 FFF7FEFF 		bl	blink_zero
 691              	.LVL140:
 692              	.L67:
 378:binary.c      ****         blink_one();
 693              		.loc 1 378 0
 694 02ec FFF7FEFF 		bl	blink_one
 695              	.LVL141:
 696 02f0 36E0     		b	.L58
 697              	.L20:
 379:binary.c      ****         blink_zero();
 380:binary.c      ****         blink_zero();
 381:binary.c      ****         break;
 382:binary.c      ****        case '5':
 383:binary.c      ****         blink_zero();
 698              		.loc 1 383 0
 699 02f2 FFF7FEFF 		bl	blink_zero
 700              	.LVL142:
ARM GAS  C:\Users\ryan\AppData\Local\Temp\cctRcFiZ.s 			page 20


 384:binary.c      ****         blink_zero();
 701              		.loc 1 384 0
 702 02f6 FFF7FEFF 		bl	blink_zero
 703              	.LVL143:
 385:binary.c      ****         blink_one();
 704              		.loc 1 385 0
 705 02fa FFF7FEFF 		bl	blink_one
 706              	.LVL144:
 707              	.L74:
 386:binary.c      ****         blink_one();
 708              		.loc 1 386 0
 709 02fe FFF7FEFF 		bl	blink_one
 710              	.LVL145:
 711              	.L75:
 387:binary.c      ****         blink_zero();
 712              		.loc 1 387 0
 713 0302 FFF7FEFF 		bl	blink_zero
 714              	.LVL146:
 715              	.L76:
 388:binary.c      ****         blink_one();
 716              		.loc 1 388 0
 717 0306 FFF7FEFF 		bl	blink_one
 718              	.LVL147:
 719 030a 3AE0     		b	.L57
 720              	.L21:
 389:binary.c      ****         blink_zero();
 390:binary.c      ****         blink_one();
 391:binary.c      ****         break;
 392:binary.c      ****        case '6':
 393:binary.c      ****         blink_zero();
 721              		.loc 1 393 0
 722 030c FFF7FEFF 		bl	blink_zero
 723              	.LVL148:
 394:binary.c      ****         blink_zero();
 724              		.loc 1 394 0
 725 0310 FFF7FEFF 		bl	blink_zero
 726              	.LVL149:
 395:binary.c      ****         blink_one();
 727              		.loc 1 395 0
 728 0314 FFF7FEFF 		bl	blink_one
 729              	.LVL150:
 730              	.L71:
 396:binary.c      ****         blink_one();
 731              		.loc 1 396 0
 732 0318 FFF7FEFF 		bl	blink_one
 733              	.LVL151:
 734              	.L69:
 397:binary.c      ****         blink_zero();
 735              		.loc 1 397 0
 736 031c FFF7FEFF 		bl	blink_zero
 737              	.LVL152:
 738              	.L70:
 398:binary.c      ****         blink_one();
 739              		.loc 1 398 0
 740 0320 FFF7FEFF 		bl	blink_one
 741              	.LVL153:
 742              	.L68:
ARM GAS  C:\Users\ryan\AppData\Local\Temp\cctRcFiZ.s 			page 21


 399:binary.c      ****         blink_one();
 743              		.loc 1 399 0
 744 0324 FFF7FEFF 		bl	blink_one
 745              	.LVL154:
 746 0328 1CE0     		b	.L56
 747              	.L22:
 400:binary.c      ****         blink_zero();
 401:binary.c      ****         break;
 402:binary.c      ****        case '7':
 403:binary.c      ****         blink_zero();
 748              		.loc 1 403 0
 749 032a FFF7FEFF 		bl	blink_zero
 750              	.LVL155:
 404:binary.c      ****         blink_zero();
 751              		.loc 1 404 0
 752 032e FFF7FEFF 		bl	blink_zero
 753              	.LVL156:
 405:binary.c      ****         blink_one();
 754              		.loc 1 405 0
 755 0332 FFF7FEFF 		bl	blink_one
 756              	.LVL157:
 757              	.L80:
 406:binary.c      ****         blink_one();
 758              		.loc 1 406 0
 759 0336 FFF7FEFF 		bl	blink_one
 760              	.LVL158:
 761              	.L78:
 407:binary.c      ****         blink_zero();
 762              		.loc 1 407 0
 763 033a FFF7FEFF 		bl	blink_zero
 764              	.LVL159:
 765              	.L79:
 408:binary.c      ****         blink_one();
 766              		.loc 1 408 0
 767 033e FFF7FEFF 		bl	blink_one
 768              	.LVL160:
 769              	.L77:
 409:binary.c      ****         blink_one();
 770              		.loc 1 409 0
 771 0342 FFF7FEFF 		bl	blink_one
 772              	.LVL161:
 773 0346 1EE0     		b	.L54
 774              	.L23:
 410:binary.c      ****         blink_one();
 411:binary.c      ****         break;
 412:binary.c      ****        case '8':
 413:binary.c      ****         blink_zero();
 775              		.loc 1 413 0
 776 0348 FFF7FEFF 		bl	blink_zero
 777              	.LVL162:
 414:binary.c      ****         blink_zero();
 778              		.loc 1 414 0
 779 034c FFF7FEFF 		bl	blink_zero
 780              	.LVL163:
 415:binary.c      ****         blink_one();
 781              		.loc 1 415 0
 782 0350 FFF7FEFF 		bl	blink_one
ARM GAS  C:\Users\ryan\AppData\Local\Temp\cctRcFiZ.s 			page 22


 783              	.LVL164:
 784              	.L61:
 416:binary.c      ****         blink_one();
 785              		.loc 1 416 0
 786 0354 FFF7FEFF 		bl	blink_one
 787              	.LVL165:
 788              	.L63:
 417:binary.c      ****         blink_one();
 789              		.loc 1 417 0
 790 0358 FFF7FEFF 		bl	blink_one
 791              	.LVL166:
 792              	.L59:
 418:binary.c      ****         blink_zero();
 793              		.loc 1 418 0
 794 035c FFF7FEFF 		bl	blink_zero
 795              	.LVL167:
 796              	.L58:
 419:binary.c      ****         blink_zero();
 797              		.loc 1 419 0
 798 0360 FFF7FEFF 		bl	blink_zero
 799              	.LVL168:
 800              	.L56:
 420:binary.c      ****         blink_zero();
 801              		.loc 1 420 0
 802 0364 FFF7FEFF 		bl	blink_zero
 803              	.LVL169:
 804 0368 0FE0     		b	.L12
 805              	.L24:
 421:binary.c      ****         break;
 422:binary.c      ****        case '9':
 423:binary.c      ****         blink_zero();
 806              		.loc 1 423 0
 807 036a FFF7FEFF 		bl	blink_zero
 808              	.LVL170:
 424:binary.c      ****         blink_zero();
 809              		.loc 1 424 0
 810 036e FFF7FEFF 		bl	blink_zero
 811              	.LVL171:
 425:binary.c      ****         blink_one();
 812              		.loc 1 425 0
 813 0372 FFF7FEFF 		bl	blink_one
 814              	.LVL172:
 815              	.L60:
 426:binary.c      ****         blink_one();
 816              		.loc 1 426 0
 817 0376 FFF7FEFF 		bl	blink_one
 818              	.LVL173:
 819              	.L62:
 427:binary.c      ****         blink_one();
 820              		.loc 1 427 0
 821 037a FFF7FEFF 		bl	blink_one
 822              	.LVL174:
 823              	.L55:
 428:binary.c      ****         blink_zero();
 824              		.loc 1 428 0
 825 037e FFF7FEFF 		bl	blink_zero
 826              	.LVL175:
ARM GAS  C:\Users\ryan\AppData\Local\Temp\cctRcFiZ.s 			page 23


 827              	.L57:
 429:binary.c      ****         blink_zero();
 828              		.loc 1 429 0
 829 0382 FFF7FEFF 		bl	blink_zero
 830              	.LVL176:
 831              	.L54:
 430:binary.c      ****         blink_one();
 832              		.loc 1 430 0
 833 0386 FFF7FEFF 		bl	blink_one
 834              	.LVL177:
 835              	.L12:
 836              	.LBE13:
 837              	.LBE12:
 431:binary.c      ****         break;
 432:binary.c      ****        case '\n':
 433:binary.c      ****         /* Clear the screen on a new line */
 434:binary.c      ****         break;
 435:binary.c      ****    }
 436:binary.c      **** }
 838              		.loc 1 436 0
 839              		@ sp needed
 840 038a 10BD     		pop	{r4, pc}
 841              		.cfi_endproc
 842              	.LFE34:
 843              		.size	binary_encode, .-binary_encode
 844              		.section	.text.binary_message,"ax",%progbits
 845              		.align	1
 846              		.global	binary_message
 847              		.code	16
 848              		.thumb_func
 849              		.type	binary_message, %function
 850              	binary_message:
 851              	.LFB35:
 437:binary.c      **** 
 438:binary.c      **** void binary_message(char* message) {
 852              		.loc 1 438 0
 853              		.cfi_startproc
 854              		@ args = 0, pretend = 0, frame = 0
 855              		@ frame_needed = 0, uses_anonymous_args = 0
 856              	.LVL178:
 857 0000 70B5     		push	{r4, r5, r6, lr}
 858              		.cfi_def_cfa_offset 16
 859              		.cfi_offset 4, -16
 860              		.cfi_offset 5, -12
 861              		.cfi_offset 6, -8
 862              		.cfi_offset 14, -4
 863              		.loc 1 438 0
 864 0002 0500     		movs	r5, r0
 439:binary.c      ****     unsigned int i;
 440:binary.c      ****     
 441:binary.c      ****     /* Blink the encoded message */
 442:binary.c      ****     for (i=0; i < strlen(message); i++) {
 865              		.loc 1 442 0
 866 0004 0024     		movs	r4, #0
 867              	.LVL179:
 868              	.L89:
 869              		.loc 1 442 0 is_stmt 0 discriminator 1
ARM GAS  C:\Users\ryan\AppData\Local\Temp\cctRcFiZ.s 			page 24


 870 0006 2800     		movs	r0, r5
 871 0008 FFF7FEFF 		bl	strlen
 872              	.LVL180:
 873 000c 8442     		cmp	r4, r0
 874 000e 09D2     		bcs	.L88
 443:binary.c      ****         /* Verify state */
 444:binary.c      ****         if(!verify_state(BINARY)) {
 875              		.loc 1 444 0 is_stmt 1
 876 0010 0220     		movs	r0, #2
 877 0012 FFF7FEFF 		bl	verify_state
 878              	.LVL181:
 879 0016 0028     		cmp	r0, #0
 880 0018 04D0     		beq	.L88
 445:binary.c      ****             return;
 446:binary.c      ****         }
 447:binary.c      ****         binary_encode(message[i]);
 881              		.loc 1 447 0 discriminator 2
 882 001a 285D     		ldrb	r0, [r5, r4]
 883 001c FFF7FEFF 		bl	binary_encode
 884              	.LVL182:
 442:binary.c      ****         /* Verify state */
 885              		.loc 1 442 0 discriminator 2
 886 0020 0134     		adds	r4, r4, #1
 887              	.LVL183:
 888 0022 F0E7     		b	.L89
 889              	.L88:
 448:binary.c      ****     }
 449:binary.c      **** }
 890              		.loc 1 449 0
 891              		@ sp needed
 892              	.LVL184:
 893              	.LVL185:
 894 0024 70BD     		pop	{r4, r5, r6, pc}
 895              		.cfi_endproc
 896              	.LFE35:
 897              		.size	binary_message, .-binary_message
 898              		.text
 899              	.Letext0:
 900              		.file 2 "state.h"
 901              		.file 3 "lightlib.h"
 902              		.file 4 "Generated_Source\\PSoC4/CyLib.h"
 903              		.file 5 "c:\\program files (x86)\\cypress\\psoc creator\\4.1\\psoc creator\\import\\gnu\\arm\\5.4.