ARM GAS  C:\Users\ryan\AppData\Local\Temp\ccZBpz2h.s 			page 1


   1              		.syntax unified
   2              		.cpu cortex-m0
   3              		.fpu softvfp
   4              		.eabi_attribute 20, 1
   5              		.eabi_attribute 21, 1
   6              		.eabi_attribute 23, 3
   7              		.eabi_attribute 24, 1
   8              		.eabi_attribute 25, 1
   9              		.eabi_attribute 26, 1
  10              		.eabi_attribute 30, 4
  11              		.eabi_attribute 34, 0
  12              		.eabi_attribute 18, 4
  13              		.thumb
  14              		.syntax unified
  15              		.file	"lightlib.c"
  16              		.text
  17              	.Ltext0:
  18              		.cfi_sections	.debug_frame
  19              		.section	.text.set_color,"ax",%progbits
  20              		.align	1
  21              		.global	set_color
  22              		.code	16
  23              		.thumb_func
  24              		.type	set_color, %function
  25              	set_color:
  26              	.LFB32:
  27              		.file 1 "lightlib.c"
   1:lightlib.c    **** /* ========================================
   2:lightlib.c    ****  *
   3:lightlib.c    ****  * Copyright Nullify, 2016
   4:lightlib.c    ****  * All Rights Reserved
   5:lightlib.c    ****  * UNPUBLISHED, LICENSED SOFTWARE.
   6:lightlib.c    ****  *
   7:lightlib.c    ****  * CONFIDENTIAL AND PROPRIETARY INFORMATION
   8:lightlib.c    ****  * WHICH IS THE PROPERTY OF NULLIY.
   9:lightlib.c    ****  *
  10:lightlib.c    ****  * ========================================
  11:lightlib.c    **** */
  12:lightlib.c    **** #include <project.h>
  13:lightlib.c    **** #include "lightlib.h"
  14:lightlib.c    **** 
  15:lightlib.c    **** 
  16:lightlib.c    **** /* Allocate a structure for each led in the project */
  17:lightlib.c    **** volatile struct RGB_LED_State Left_LED_State;
  18:lightlib.c    **** volatile struct RGB_LED_State Right_LED_State;
  19:lightlib.c    **** volatile struct LED_State IR_LED_State;
  20:lightlib.c    **** volatile struct LED_State Board_LED_State;
  21:lightlib.c    **** 
  22:lightlib.c    **** /*
  23:lightlib.c    ****  * Sets the color of the of the passed in led_flag.
  24:lightlib.c    ****  */
  25:lightlib.c    **** void set_color(uint8 led_flag, uint8 color) {
  28              		.loc 1 25 0
  29              		.cfi_startproc
  30              		@ args = 0, pretend = 0, frame = 0
  31              		@ frame_needed = 0, uses_anonymous_args = 0
  32              	.LVL0:
ARM GAS  C:\Users\ryan\AppData\Local\Temp\ccZBpz2h.s 			page 2


  33 0000 10B5     		push	{r4, lr}
  34              		.cfi_def_cfa_offset 8
  35              		.cfi_offset 4, -8
  36              		.cfi_offset 14, -4
  37              		.loc 1 25 0
  38 0002 0C00     		movs	r4, r1
  26:lightlib.c    ****     switch(led_flag) {
  39              		.loc 1 26 0
  40 0004 0228     		cmp	r0, #2
  41 0006 08D0     		beq	.L3
  42 0008 0328     		cmp	r0, #3
  43 000a 03D0     		beq	.L4
  27:lightlib.c    ****         case LEFT_LED:
  28:lightlib.c    ****             Left_LED_State.color = color;
  44              		.loc 1 28 0
  45 000c 044B     		ldr	r3, .L11
  26:lightlib.c    ****     switch(led_flag) {
  46              		.loc 1 26 0
  47 000e 0128     		cmp	r0, #1
  48 0010 05D1     		bne	.L1
  49 0012 03E0     		b	.L9
  50              	.L4:
  29:lightlib.c    ****         break;
  30:lightlib.c    ****         case RIGHT_LED:
  31:lightlib.c    ****             Right_LED_State.color = color;
  32:lightlib.c    ****         break;
  33:lightlib.c    ****         case LEFT_RIGHT_LED:
  34:lightlib.c    ****             set_color(LEFT_LED, color);
  51              		.loc 1 34 0
  52 0014 0120     		movs	r0, #1
  53              	.LVL1:
  54 0016 FFF7FEFF 		bl	set_color
  55              	.LVL2:
  56              	.L3:
  31:lightlib.c    ****         break;
  57              		.loc 1 31 0
  58 001a 024B     		ldr	r3, .L11+4
  59              	.L9:
  60 001c 5C70     		strb	r4, [r3, #1]
  61              	.L1:
  35:lightlib.c    ****             set_color(RIGHT_LED, color);
  36:lightlib.c    ****         break;
  37:lightlib.c    ****     }    
  38:lightlib.c    **** }
  62              		.loc 1 38 0
  63              		@ sp needed
  64 001e 10BD     		pop	{r4, pc}
  65              	.L12:
  66              		.align	2
  67              	.L11:
  68 0020 00000000 		.word	Left_LED_State
  69 0024 00000000 		.word	Right_LED_State
  70              		.cfi_endproc
  71              	.LFE32:
  72              		.size	set_color, .-set_color
  73              		.section	.text.set_status,"ax",%progbits
  74              		.align	1
ARM GAS  C:\Users\ryan\AppData\Local\Temp\ccZBpz2h.s 			page 3


  75              		.global	set_status
  76              		.code	16
  77              		.thumb_func
  78              		.type	set_status, %function
  79              	set_status:
  80              	.LFB33:
  39:lightlib.c    **** 
  40:lightlib.c    **** void set_status(uint8 led_flag, uint8 status) {
  81              		.loc 1 40 0
  82              		.cfi_startproc
  83              		@ args = 0, pretend = 0, frame = 0
  84              		@ frame_needed = 0, uses_anonymous_args = 0
  85              	.LVL3:
  41:lightlib.c    ****     switch(led_flag) {
  86              		.loc 1 41 0
  87 0000 0138     		subs	r0, r0, #1
  88              	.LVL4:
  40:lightlib.c    ****     switch(led_flag) {
  89              		.loc 1 40 0
  90 0002 10B5     		push	{r4, lr}
  91              		.cfi_def_cfa_offset 8
  92              		.cfi_offset 4, -8
  93              		.cfi_offset 14, -4
  40:lightlib.c    ****     switch(led_flag) {
  94              		.loc 1 40 0
  95 0004 0C00     		movs	r4, r1
  96              		.loc 1 41 0
  97 0006 0428     		cmp	r0, #4
  98 0008 0FD8     		bhi	.L13
  99 000a FFF7FEFF 		bl	__gnu_thumb1_case_uqi
 100              	.L16:
 101 000e 03       		.byte	(.L15-.L16)/2
 102 000f 08       		.byte	(.L17-.L16)/2
 103 0010 05       		.byte	(.L18-.L16)/2
 104 0011 0A       		.byte	(.L19-.L16)/2
 105 0012 0C       		.byte	(.L20-.L16)/2
 106 0013 00       		.p2align 1
 107              	.L15:
  42:lightlib.c    ****         case LEFT_LED:
  43:lightlib.c    ****             Left_LED_State.status = status;
 108              		.loc 1 43 0
 109 0014 054B     		ldr	r3, .L22
 110 0016 07E0     		b	.L21
 111              	.L18:
  44:lightlib.c    ****         break;
  45:lightlib.c    ****         case RIGHT_LED:
  46:lightlib.c    ****             Right_LED_State.status = status;
  47:lightlib.c    ****         break;
  48:lightlib.c    ****         case LEFT_RIGHT_LED:
  49:lightlib.c    ****             set_status(LEFT_LED, status);
 112              		.loc 1 49 0
 113 0018 0120     		movs	r0, #1
 114 001a FFF7FEFF 		bl	set_status
 115              	.LVL5:
 116              	.L17:
  46:lightlib.c    ****         break;
 117              		.loc 1 46 0
ARM GAS  C:\Users\ryan\AppData\Local\Temp\ccZBpz2h.s 			page 4


 118 001e 044B     		ldr	r3, .L22+4
 119 0020 02E0     		b	.L21
 120              	.LVL6:
 121              	.L19:
  50:lightlib.c    ****             set_status(RIGHT_LED, status);
  51:lightlib.c    ****         break;
  52:lightlib.c    ****         case IR_LED:
  53:lightlib.c    ****             IR_LED_State.status = status;
 122              		.loc 1 53 0
 123 0022 044B     		ldr	r3, .L22+8
 124 0024 00E0     		b	.L21
 125              	.L20:
  54:lightlib.c    ****         break;
  55:lightlib.c    ****         case BOARD_LED:
  56:lightlib.c    ****            Board_LED_State.status = status;
 126              		.loc 1 56 0
 127 0026 044B     		ldr	r3, .L22+12
 128              	.LVL7:
 129              	.L21:
 130 0028 1C70     		strb	r4, [r3]
 131              	.L13:
  57:lightlib.c    ****         break;
  58:lightlib.c    ****     }    
  59:lightlib.c    **** }
 132              		.loc 1 59 0
 133              		@ sp needed
 134 002a 10BD     		pop	{r4, pc}
 135              	.L23:
 136              		.align	2
 137              	.L22:
 138 002c 00000000 		.word	Left_LED_State
 139 0030 00000000 		.word	Right_LED_State
 140 0034 00000000 		.word	IR_LED_State
 141 0038 00000000 		.word	Board_LED_State
 142              		.cfi_endproc
 143              	.LFE33:
 144              		.size	set_status, .-set_status
 145              		.section	.text.get_color,"ax",%progbits
 146              		.align	1
 147              		.global	get_color
 148              		.code	16
 149              		.thumb_func
 150              		.type	get_color, %function
 151              	get_color:
 152              	.LFB34:
  60:lightlib.c    **** 
  61:lightlib.c    **** uint8 get_color(uint8 led_flag) {
 153              		.loc 1 61 0
 154              		.cfi_startproc
 155              		@ args = 0, pretend = 0, frame = 0
 156              		@ frame_needed = 0, uses_anonymous_args = 0
 157              		@ link register save eliminated.
 158              	.LVL8:
  62:lightlib.c    ****     switch(led_flag) {
 159              		.loc 1 62 0
 160 0000 0128     		cmp	r0, #1
 161 0002 03D0     		beq	.L26
ARM GAS  C:\Users\ryan\AppData\Local\Temp\ccZBpz2h.s 			page 5


 162 0004 0228     		cmp	r0, #2
 163 0006 05D1     		bne	.L31
  63:lightlib.c    ****         case LEFT_LED:
  64:lightlib.c    ****             return Left_LED_State.color;
  65:lightlib.c    ****         break;
  66:lightlib.c    ****         case RIGHT_LED:
  67:lightlib.c    ****             return Right_LED_State.color;
 164              		.loc 1 67 0
 165 0008 034B     		ldr	r3, .L32
 166 000a 00E0     		b	.L30
 167              	.L26:
  64:lightlib.c    ****         break;
 168              		.loc 1 64 0
 169 000c 034B     		ldr	r3, .L32+4
 170              	.L30:
 171              		.loc 1 67 0
 172 000e 5878     		ldrb	r0, [r3, #1]
 173              	.LVL9:
 174 0010 C0B2     		uxtb	r0, r0
 175 0012 00E0     		b	.L25
 176              	.LVL10:
 177              	.L31:
  68:lightlib.c    ****         break;
  69:lightlib.c    ****     }
  70:lightlib.c    ****     return -1;
 178              		.loc 1 70 0
 179 0014 FF20     		movs	r0, #255
 180              	.LVL11:
 181              	.L25:
  71:lightlib.c    **** }
 182              		.loc 1 71 0
 183              		@ sp needed
 184 0016 7047     		bx	lr
 185              	.L33:
 186              		.align	2
 187              	.L32:
 188 0018 00000000 		.word	Right_LED_State
 189 001c 00000000 		.word	Left_LED_State
 190              		.cfi_endproc
 191              	.LFE34:
 192              		.size	get_color, .-get_color
 193              		.section	.text.get_status,"ax",%progbits
 194              		.align	1
 195              		.global	get_status
 196              		.code	16
 197              		.thumb_func
 198              		.type	get_status, %function
 199              	get_status:
 200              	.LFB35:
  72:lightlib.c    **** 
  73:lightlib.c    **** uint8 get_status(uint8 led_flag) {
 201              		.loc 1 73 0
 202              		.cfi_startproc
 203              		@ args = 0, pretend = 0, frame = 0
 204              		@ frame_needed = 0, uses_anonymous_args = 0
 205              	.LVL12:
  74:lightlib.c    ****     switch(led_flag) {
ARM GAS  C:\Users\ryan\AppData\Local\Temp\ccZBpz2h.s 			page 6


 206              		.loc 1 74 0
 207 0000 0138     		subs	r0, r0, #1
 208              	.LVL13:
  73:lightlib.c    ****     switch(led_flag) {
 209              		.loc 1 73 0
 210 0002 00B5     		push	{lr}
 211              		.cfi_def_cfa_offset 4
 212              		.cfi_offset 14, -4
 213              		.loc 1 74 0
 214 0004 0428     		cmp	r0, #4
 215 0006 0ED8     		bhi	.L41
 216 0008 FFF7FEFF 		bl	__gnu_thumb1_case_uqi
 217              	.L37:
 218 000c 03       		.byte	(.L36-.L37)/2
 219 000d 05       		.byte	(.L38-.L37)/2
 220 000e 0D       		.byte	(.L41-.L37)/2
 221 000f 07       		.byte	(.L39-.L37)/2
 222 0010 09       		.byte	(.L40-.L37)/2
 223 0011 00       		.p2align 1
 224              	.L36:
  75:lightlib.c    ****         case LEFT_LED:
  76:lightlib.c    ****             return Left_LED_State.status;
 225              		.loc 1 76 0
 226 0012 064B     		ldr	r3, .L43
 227 0014 04E0     		b	.L42
 228              	.L38:
  77:lightlib.c    ****         break;
  78:lightlib.c    ****         case RIGHT_LED:
  79:lightlib.c    ****             return Right_LED_State.status;
 229              		.loc 1 79 0
 230 0016 064B     		ldr	r3, .L43+4
 231 0018 02E0     		b	.L42
 232              	.L39:
  80:lightlib.c    ****         break;
  81:lightlib.c    ****         case IR_LED:
  82:lightlib.c    ****             return IR_LED_State.status;
 233              		.loc 1 82 0
 234 001a 064B     		ldr	r3, .L43+8
 235 001c 00E0     		b	.L42
 236              	.L40:
  83:lightlib.c    ****         break;
  84:lightlib.c    ****         case BOARD_LED:
  85:lightlib.c    ****            return Board_LED_State.status;
 237              		.loc 1 85 0
 238 001e 064B     		ldr	r3, .L43+12
 239              	.L42:
 240 0020 1878     		ldrb	r0, [r3]
 241 0022 C0B2     		uxtb	r0, r0
 242 0024 00E0     		b	.L35
 243              	.L41:
  86:lightlib.c    ****         break;
  87:lightlib.c    ****     }  
  88:lightlib.c    ****     return -1;
 244              		.loc 1 88 0
 245 0026 FF20     		movs	r0, #255
 246              	.L35:
  89:lightlib.c    **** }
ARM GAS  C:\Users\ryan\AppData\Local\Temp\ccZBpz2h.s 			page 7


 247              		.loc 1 89 0
 248              		@ sp needed
 249 0028 00BD     		pop	{pc}
 250              	.L44:
 251 002a C046     		.align	2
 252              	.L43:
 253 002c 00000000 		.word	Left_LED_State
 254 0030 00000000 		.word	Right_LED_State
 255 0034 00000000 		.word	IR_LED_State
 256 0038 00000000 		.word	Board_LED_State
 257              		.cfi_endproc
 258              	.LFE35:
 259              		.size	get_status, .-get_status
 260              		.section	.text.turn_on,"ax",%progbits
 261              		.align	1
 262              		.global	turn_on
 263              		.code	16
 264              		.thumb_func
 265              		.type	turn_on, %function
 266              	turn_on:
 267              	.LFB36:
  90:lightlib.c    **** 
  91:lightlib.c    **** void turn_on(uint8 led_flag) {
 268              		.loc 1 91 0
 269              		.cfi_startproc
 270              		@ args = 0, pretend = 0, frame = 0
 271              		@ frame_needed = 0, uses_anonymous_args = 0
 272              	.LVL14:
  92:lightlib.c    ****     switch(led_flag) {
 273              		.loc 1 92 0
 274 0000 0138     		subs	r0, r0, #1
 275              	.LVL15:
  91:lightlib.c    ****     switch(led_flag) {
 276              		.loc 1 91 0
 277 0002 10B5     		push	{r4, lr}
 278              		.cfi_def_cfa_offset 8
 279              		.cfi_offset 4, -8
 280              		.cfi_offset 14, -4
 281              		.loc 1 92 0
 282 0004 0428     		cmp	r0, #4
 283 0006 58D8     		bhi	.L45
 284 0008 FFF7FEFF 		bl	__gnu_thumb1_case_uqi
 285              	.L48:
 286 000c 03       		.byte	(.L47-.L48)/2
 287 000d 28       		.byte	(.L49-.L48)/2
 288 000e 25       		.byte	(.L50-.L48)/2
 289 000f 4A       		.byte	(.L51-.L48)/2
 290 0010 50       		.byte	(.L52-.L48)/2
 291 0011 00       		.p2align 1
 292              	.L47:
 293              	.LVL16:
 294              	.LBB6:
 295              	.LBB7:
  64:lightlib.c    ****         break;
 296              		.loc 1 64 0
 297 0012 2A4B     		ldr	r3, .L78
 298 0014 5878     		ldrb	r0, [r3, #1]
ARM GAS  C:\Users\ryan\AppData\Local\Temp\ccZBpz2h.s 			page 8


 299              	.LBE7:
 300              	.LBE6:
  93:lightlib.c    ****         case LEFT_LED:
  94:lightlib.c    ****             switch(get_color(LEFT_LED)) {
 301              		.loc 1 94 0
 302 0016 0138     		subs	r0, r0, #1
 303 0018 0628     		cmp	r0, #6
 304 001a 19D8     		bhi	.L53
 305 001c FFF7FEFF 		bl	__gnu_thumb1_case_uqi
 306              	.L55:
 307 0020 04       		.byte	(.L54-.L55)/2
 308 0021 09       		.byte	(.L71-.L55)/2
 309 0022 07       		.byte	(.L57-.L55)/2
 310 0023 15       		.byte	(.L73-.L55)/2
 311 0024 0D       		.byte	(.L59-.L55)/2
 312 0025 12       		.byte	(.L72-.L55)/2
 313 0026 10       		.byte	(.L61-.L55)/2
 314 0027 00       		.p2align 1
 315              	.L54:
  95:lightlib.c    ****                 case RED:
  96:lightlib.c    ****                     PWM_Left_LED_Red_Start();
 316              		.loc 1 96 0
 317 0028 FFF7FEFF 		bl	PWM_Left_LED_Red_Start
 318              	.LVL17:
  97:lightlib.c    ****                 break;
 319              		.loc 1 97 0
 320 002c 10E0     		b	.L53
 321              	.L57:
  98:lightlib.c    ****                 case BLUE:
  99:lightlib.c    ****                     Left_LED_Blue_Write(1);
 100:lightlib.c    ****                 break;
 101:lightlib.c    ****                 case MAGENTA:
 102:lightlib.c    ****                     PWM_Left_LED_Red_Start();
 322              		.loc 1 102 0
 323 002e FFF7FEFF 		bl	PWM_Left_LED_Red_Start
 324              	.LVL18:
 325              	.L71:
 103:lightlib.c    ****                     Left_LED_Blue_Write(1);
 326              		.loc 1 103 0
 327 0032 0120     		movs	r0, #1
 328 0034 FFF7FEFF 		bl	Left_LED_Blue_Write
 329              	.LVL19:
 104:lightlib.c    ****                 break;
 330              		.loc 1 104 0
 331 0038 0AE0     		b	.L53
 332              	.L59:
 105:lightlib.c    ****                 case GREEN:
 106:lightlib.c    ****                     Left_LED_Green_Write(1);
 107:lightlib.c    ****                 break;
 108:lightlib.c    ****                 case YELLOW:
 109:lightlib.c    ****                     PWM_Left_LED_Red_Start();
 333              		.loc 1 109 0
 334 003a FFF7FEFF 		bl	PWM_Left_LED_Red_Start
 335              	.LVL20:
 336 003e 04E0     		b	.L73
 337              	.L61:
 110:lightlib.c    ****                     Left_LED_Green_Write(1);
ARM GAS  C:\Users\ryan\AppData\Local\Temp\ccZBpz2h.s 			page 9


 111:lightlib.c    ****                 break;
 112:lightlib.c    ****                 case CYAN:
 113:lightlib.c    ****                     Left_LED_Blue_Write(1);
 114:lightlib.c    ****                     Left_LED_Green_Write(1);
 115:lightlib.c    ****                 break;
 116:lightlib.c    ****                 case WHITE:
 117:lightlib.c    ****                     PWM_Left_LED_Red_Start();
 338              		.loc 1 117 0
 339 0040 FFF7FEFF 		bl	PWM_Left_LED_Red_Start
 340              	.LVL21:
 341              	.L72:
 118:lightlib.c    ****                     Left_LED_Blue_Write(1);
 342              		.loc 1 118 0
 343 0044 0120     		movs	r0, #1
 344 0046 FFF7FEFF 		bl	Left_LED_Blue_Write
 345              	.LVL22:
 346              	.L73:
 119:lightlib.c    ****                     Left_LED_Green_Write(1);
 347              		.loc 1 119 0
 348 004a 0120     		movs	r0, #1
 349 004c FFF7FEFF 		bl	Left_LED_Green_Write
 350              	.LVL23:
 351              	.L53:
 120:lightlib.c    ****                 break;
 121:lightlib.c    ****             }
 122:lightlib.c    ****         set_status(LEFT_LED, ON);
 352              		.loc 1 122 0
 353 0050 0121     		movs	r1, #1
 354 0052 0800     		movs	r0, r1
 355 0054 2FE0     		b	.L77
 356              	.L50:
 123:lightlib.c    ****         break;
 124:lightlib.c    ****         case RIGHT_LED:
 125:lightlib.c    ****             switch(get_color(RIGHT_LED)) {
 126:lightlib.c    ****                 case RED:
 127:lightlib.c    ****                     PWM_Right_LED_Red_Start();
 128:lightlib.c    ****                 break;
 129:lightlib.c    ****                 case BLUE:
 130:lightlib.c    ****                     Right_LED_Blue_Write(1);
 131:lightlib.c    ****                 break;
 132:lightlib.c    ****                 case MAGENTA:
 133:lightlib.c    ****                     PWM_Right_LED_Red_Start();
 134:lightlib.c    ****                     Right_LED_Blue_Write(1);
 135:lightlib.c    ****                 break;
 136:lightlib.c    ****                 case GREEN:
 137:lightlib.c    ****                     Right_LED_Green_Write(1);
 138:lightlib.c    ****                 break;
 139:lightlib.c    ****                 case YELLOW:
 140:lightlib.c    ****                     PWM_Right_LED_Red_Start();
 141:lightlib.c    ****                     Right_LED_Green_Write(1);
 142:lightlib.c    ****                 break;
 143:lightlib.c    ****                 case CYAN:
 144:lightlib.c    ****                     Right_LED_Blue_Write(1);
 145:lightlib.c    ****                     Right_LED_Green_Write(1);
 146:lightlib.c    ****                 break;
 147:lightlib.c    ****                 case WHITE:
 148:lightlib.c    ****                     PWM_Right_LED_Red_Start();
ARM GAS  C:\Users\ryan\AppData\Local\Temp\ccZBpz2h.s 			page 10


 149:lightlib.c    ****                     Right_LED_Blue_Write(1);
 150:lightlib.c    ****                     Right_LED_Green_Write(1);
 151:lightlib.c    ****                 break;
 152:lightlib.c    ****             }
 153:lightlib.c    ****         set_status(RIGHT_LED, ON);
 154:lightlib.c    ****         break;
 155:lightlib.c    ****         case LEFT_RIGHT_LED:
 156:lightlib.c    ****             turn_on(LEFT_LED);
 357              		.loc 1 156 0
 358 0056 0120     		movs	r0, #1
 359 0058 FFF7FEFF 		bl	turn_on
 360              	.LVL24:
 361              	.L49:
 362              	.LBB8:
 363              	.LBB9:
  67:lightlib.c    ****         break;
 364              		.loc 1 67 0
 365 005c 184B     		ldr	r3, .L78+4
 366 005e 5878     		ldrb	r0, [r3, #1]
 367              	.LBE9:
 368              	.LBE8:
 125:lightlib.c    ****                 case RED:
 369              		.loc 1 125 0
 370 0060 0138     		subs	r0, r0, #1
 371 0062 0628     		cmp	r0, #6
 372 0064 19D8     		bhi	.L62
 373 0066 FFF7FEFF 		bl	__gnu_thumb1_case_uqi
 374              	.L64:
 375 006a 04       		.byte	(.L63-.L64)/2
 376 006b 09       		.byte	(.L74-.L64)/2
 377 006c 07       		.byte	(.L66-.L64)/2
 378 006d 15       		.byte	(.L76-.L64)/2
 379 006e 0D       		.byte	(.L68-.L64)/2
 380 006f 12       		.byte	(.L75-.L64)/2
 381 0070 10       		.byte	(.L70-.L64)/2
 382 0071 00       		.p2align 1
 383              	.L63:
 127:lightlib.c    ****                 break;
 384              		.loc 1 127 0
 385 0072 FFF7FEFF 		bl	PWM_Right_LED_Red_Start
 386              	.LVL25:
 128:lightlib.c    ****                 case BLUE:
 387              		.loc 1 128 0
 388 0076 10E0     		b	.L62
 389              	.L66:
 133:lightlib.c    ****                     Right_LED_Blue_Write(1);
 390              		.loc 1 133 0
 391 0078 FFF7FEFF 		bl	PWM_Right_LED_Red_Start
 392              	.LVL26:
 393              	.L74:
 134:lightlib.c    ****                 break;
 394              		.loc 1 134 0
 395 007c 0120     		movs	r0, #1
 396 007e FFF7FEFF 		bl	Right_LED_Blue_Write
 397              	.LVL27:
 135:lightlib.c    ****                 case GREEN:
 398              		.loc 1 135 0
ARM GAS  C:\Users\ryan\AppData\Local\Temp\ccZBpz2h.s 			page 11


 399 0082 0AE0     		b	.L62
 400              	.L68:
 140:lightlib.c    ****                     Right_LED_Green_Write(1);
 401              		.loc 1 140 0
 402 0084 FFF7FEFF 		bl	PWM_Right_LED_Red_Start
 403              	.LVL28:
 404 0088 04E0     		b	.L76
 405              	.L70:
 148:lightlib.c    ****                     Right_LED_Blue_Write(1);
 406              		.loc 1 148 0
 407 008a FFF7FEFF 		bl	PWM_Right_LED_Red_Start
 408              	.LVL29:
 409              	.L75:
 149:lightlib.c    ****                     Right_LED_Green_Write(1);
 410              		.loc 1 149 0
 411 008e 0120     		movs	r0, #1
 412 0090 FFF7FEFF 		bl	Right_LED_Blue_Write
 413              	.LVL30:
 414              	.L76:
 150:lightlib.c    ****                 break;
 415              		.loc 1 150 0
 416 0094 0120     		movs	r0, #1
 417 0096 FFF7FEFF 		bl	Right_LED_Green_Write
 418              	.LVL31:
 419              	.L62:
 153:lightlib.c    ****         break;
 420              		.loc 1 153 0
 421 009a 0121     		movs	r1, #1
 422 009c 0220     		movs	r0, #2
 423 009e 0AE0     		b	.L77
 424              	.L51:
 157:lightlib.c    ****             turn_on(RIGHT_LED);
 158:lightlib.c    ****         break;
 159:lightlib.c    ****         case IR_LED:
 160:lightlib.c    ****             IR_LED_Write(1);
 425              		.loc 1 160 0
 426 00a0 0120     		movs	r0, #1
 427 00a2 FFF7FEFF 		bl	IR_LED_Write
 428              	.LVL32:
 161:lightlib.c    ****             set_status(IR_LED, ON);
 429              		.loc 1 161 0
 430 00a6 0121     		movs	r1, #1
 431 00a8 0420     		movs	r0, #4
 432 00aa 04E0     		b	.L77
 433              	.L52:
 162:lightlib.c    ****         break;
 163:lightlib.c    ****         case BOARD_LED:
 164:lightlib.c    ****             Board_LED_Write(1);
 434              		.loc 1 164 0
 435 00ac 0120     		movs	r0, #1
 436 00ae FFF7FEFF 		bl	Board_LED_Write
 437              	.LVL33:
 165:lightlib.c    ****             set_status(BOARD_LED, ON);
 438              		.loc 1 165 0
 439 00b2 0121     		movs	r1, #1
 440 00b4 0520     		movs	r0, #5
 441              	.L77:
ARM GAS  C:\Users\ryan\AppData\Local\Temp\ccZBpz2h.s 			page 12


 442 00b6 FFF7FEFF 		bl	set_status
 443              	.LVL34:
 444              	.L45:
 166:lightlib.c    **** 
 167:lightlib.c    ****         break;
 168:lightlib.c    ****     }    
 169:lightlib.c    **** }
 445              		.loc 1 169 0
 446              		@ sp needed
 447 00ba 10BD     		pop	{r4, pc}
 448              	.L79:
 449              		.align	2
 450              	.L78:
 451 00bc 00000000 		.word	Left_LED_State
 452 00c0 00000000 		.word	Right_LED_State
 453              		.cfi_endproc
 454              	.LFE36:
 455              		.size	turn_on, .-turn_on
 456              		.section	.text.turn_off,"ax",%progbits
 457              		.align	1
 458              		.global	turn_off
 459              		.code	16
 460              		.thumb_func
 461              		.type	turn_off, %function
 462              	turn_off:
 463              	.LFB37:
 170:lightlib.c    **** 
 171:lightlib.c    **** void turn_off(uint8 led_flag) {
 464              		.loc 1 171 0
 465              		.cfi_startproc
 466              		@ args = 0, pretend = 0, frame = 0
 467              		@ frame_needed = 0, uses_anonymous_args = 0
 468              	.LVL35:
 172:lightlib.c    ****     switch(led_flag) {
 469              		.loc 1 172 0
 470 0000 0138     		subs	r0, r0, #1
 471              	.LVL36:
 171:lightlib.c    ****     switch(led_flag) {
 472              		.loc 1 171 0
 473 0002 10B5     		push	{r4, lr}
 474              		.cfi_def_cfa_offset 8
 475              		.cfi_offset 4, -8
 476              		.cfi_offset 14, -4
 477              		.loc 1 172 0
 478 0004 0428     		cmp	r0, #4
 479 0006 2AD8     		bhi	.L80
 480 0008 FFF7FEFF 		bl	__gnu_thumb1_case_uqi
 481              	.L83:
 482 000c 03       		.byte	(.L82-.L83)/2
 483 000d 11       		.byte	(.L84-.L83)/2
 484 000e 0E       		.byte	(.L85-.L83)/2
 485 000f 1C       		.byte	(.L86-.L83)/2
 486 0010 22       		.byte	(.L87-.L83)/2
 487 0011 00       		.p2align 1
 488              	.L82:
 489              	.LVL37:
 490              	.LBB12:
ARM GAS  C:\Users\ryan\AppData\Local\Temp\ccZBpz2h.s 			page 13


 491              	.LBB13:
 173:lightlib.c    ****         case LEFT_LED:
 174:lightlib.c    ****             PWM_Left_LED_Red_Stop();
 492              		.loc 1 174 0
 493 0012 FFF7FEFF 		bl	PWM_Left_LED_Red_Stop
 494              	.LVL38:
 175:lightlib.c    ****             Left_LED_Blue_Write(0);
 495              		.loc 1 175 0
 496 0016 0020     		movs	r0, #0
 497 0018 FFF7FEFF 		bl	Left_LED_Blue_Write
 498              	.LVL39:
 176:lightlib.c    ****             Left_LED_Green_Write(0);
 499              		.loc 1 176 0
 500 001c 0020     		movs	r0, #0
 501 001e FFF7FEFF 		bl	Left_LED_Green_Write
 502              	.LVL40:
 177:lightlib.c    ****             set_status(LEFT_LED, OFF);
 503              		.loc 1 177 0
 504 0022 0021     		movs	r1, #0
 505 0024 0120     		movs	r0, #1
 506 0026 18E0     		b	.L88
 507              	.LVL41:
 508              	.L85:
 509              	.LBE13:
 510              	.LBE12:
 178:lightlib.c    ****         break;
 179:lightlib.c    ****         case RIGHT_LED:
 180:lightlib.c    ****             PWM_Right_LED_Red_Stop();
 181:lightlib.c    ****             Right_LED_Blue_Write(0);
 182:lightlib.c    ****             Right_LED_Green_Write(0);
 183:lightlib.c    ****             set_status(RIGHT_LED, OFF);
 184:lightlib.c    ****         break;
 185:lightlib.c    ****         case LEFT_RIGHT_LED:
 186:lightlib.c    ****             turn_off(LEFT_LED);
 511              		.loc 1 186 0
 512 0028 0120     		movs	r0, #1
 513 002a FFF7FEFF 		bl	turn_off
 514              	.LVL42:
 515              	.L84:
 180:lightlib.c    ****             Right_LED_Blue_Write(0);
 516              		.loc 1 180 0
 517 002e FFF7FEFF 		bl	PWM_Right_LED_Red_Stop
 518              	.LVL43:
 181:lightlib.c    ****             Right_LED_Green_Write(0);
 519              		.loc 1 181 0
 520 0032 0020     		movs	r0, #0
 521 0034 FFF7FEFF 		bl	Right_LED_Blue_Write
 522              	.LVL44:
 182:lightlib.c    ****             set_status(RIGHT_LED, OFF);
 523              		.loc 1 182 0
 524 0038 0020     		movs	r0, #0
 525 003a FFF7FEFF 		bl	Right_LED_Green_Write
 526              	.LVL45:
 183:lightlib.c    ****         break;
 527              		.loc 1 183 0
 528 003e 0021     		movs	r1, #0
 529 0040 0220     		movs	r0, #2
ARM GAS  C:\Users\ryan\AppData\Local\Temp\ccZBpz2h.s 			page 14


 530 0042 0AE0     		b	.L88
 531              	.L86:
 187:lightlib.c    ****             turn_off(RIGHT_LED);
 188:lightlib.c    ****         break;
 189:lightlib.c    ****         case IR_LED:
 190:lightlib.c    ****             IR_LED_Write(0);
 532              		.loc 1 190 0
 533 0044 0020     		movs	r0, #0
 534 0046 FFF7FEFF 		bl	IR_LED_Write
 535              	.LVL46:
 191:lightlib.c    ****             set_status(IR_LED, OFF);
 536              		.loc 1 191 0
 537 004a 0021     		movs	r1, #0
 538 004c 0420     		movs	r0, #4
 539 004e 04E0     		b	.L88
 540              	.L87:
 192:lightlib.c    ****         break;
 193:lightlib.c    ****         case BOARD_LED:
 194:lightlib.c    ****             Board_LED_Write(0);
 541              		.loc 1 194 0
 542 0050 0020     		movs	r0, #0
 543 0052 FFF7FEFF 		bl	Board_LED_Write
 544              	.LVL47:
 195:lightlib.c    ****            set_status(BOARD_LED, OFF);
 545              		.loc 1 195 0
 546 0056 0021     		movs	r1, #0
 547 0058 0520     		movs	r0, #5
 548              	.L88:
 549 005a FFF7FEFF 		bl	set_status
 550              	.LVL48:
 551              	.L80:
 196:lightlib.c    ****         break;
 197:lightlib.c    ****     }    
 198:lightlib.c    **** }
 552              		.loc 1 198 0
 553              		@ sp needed
 554 005e 10BD     		pop	{r4, pc}
 555              		.cfi_endproc
 556              	.LFE37:
 557              		.size	turn_off, .-turn_off
 558              		.section	.text.turn_on_all_led,"ax",%progbits
 559              		.align	1
 560              		.global	turn_on_all_led
 561              		.code	16
 562              		.thumb_func
 563              		.type	turn_on_all_led, %function
 564              	turn_on_all_led:
 565              	.LFB38:
 199:lightlib.c    **** 
 200:lightlib.c    **** void turn_on_all_led(void) {
 566              		.loc 1 200 0
 567              		.cfi_startproc
 568              		@ args = 0, pretend = 0, frame = 0
 569              		@ frame_needed = 0, uses_anonymous_args = 0
 570 0000 10B5     		push	{r4, lr}
 571              		.cfi_def_cfa_offset 8
 572              		.cfi_offset 4, -8
ARM GAS  C:\Users\ryan\AppData\Local\Temp\ccZBpz2h.s 			page 15


 573              		.cfi_offset 14, -4
 201:lightlib.c    ****     turn_on(LEFT_LED);
 574              		.loc 1 201 0
 575 0002 0120     		movs	r0, #1
 576 0004 FFF7FEFF 		bl	turn_on
 577              	.LVL49:
 202:lightlib.c    ****     turn_on(RIGHT_LED); 
 578              		.loc 1 202 0
 579 0008 0220     		movs	r0, #2
 580 000a FFF7FEFF 		bl	turn_on
 581              	.LVL50:
 203:lightlib.c    ****     turn_on(IR_LED); 
 582              		.loc 1 203 0
 583 000e 0420     		movs	r0, #4
 584 0010 FFF7FEFF 		bl	turn_on
 585              	.LVL51:
 204:lightlib.c    ****     turn_on(BOARD_LED); 
 586              		.loc 1 204 0
 587 0014 0520     		movs	r0, #5
 588 0016 FFF7FEFF 		bl	turn_on
 589              	.LVL52:
 205:lightlib.c    **** }
 590              		.loc 1 205 0
 591              		@ sp needed
 592 001a 10BD     		pop	{r4, pc}
 593              		.cfi_endproc
 594              	.LFE38:
 595              		.size	turn_on_all_led, .-turn_on_all_led
 596              		.section	.text.turn_off_all_led,"ax",%progbits
 597              		.align	1
 598              		.global	turn_off_all_led
 599              		.code	16
 600              		.thumb_func
 601              		.type	turn_off_all_led, %function
 602              	turn_off_all_led:
 603              	.LFB39:
 206:lightlib.c    **** 
 207:lightlib.c    **** void turn_off_all_led(void) {
 604              		.loc 1 207 0
 605              		.cfi_startproc
 606              		@ args = 0, pretend = 0, frame = 0
 607              		@ frame_needed = 0, uses_anonymous_args = 0
 608 0000 10B5     		push	{r4, lr}
 609              		.cfi_def_cfa_offset 8
 610              		.cfi_offset 4, -8
 611              		.cfi_offset 14, -4
 208:lightlib.c    ****     turn_off(LEFT_LED);
 612              		.loc 1 208 0
 613 0002 0120     		movs	r0, #1
 614 0004 FFF7FEFF 		bl	turn_off
 615              	.LVL53:
 209:lightlib.c    ****     turn_off(RIGHT_LED); 
 616              		.loc 1 209 0
 617 0008 0220     		movs	r0, #2
 618 000a FFF7FEFF 		bl	turn_off
 619              	.LVL54:
 210:lightlib.c    ****     turn_off(IR_LED); 
ARM GAS  C:\Users\ryan\AppData\Local\Temp\ccZBpz2h.s 			page 16


 620              		.loc 1 210 0
 621 000e 0420     		movs	r0, #4
 622 0010 FFF7FEFF 		bl	turn_off
 623              	.LVL55:
 211:lightlib.c    ****     turn_off(BOARD_LED); 
 624              		.loc 1 211 0
 625 0014 0520     		movs	r0, #5
 626 0016 FFF7FEFF 		bl	turn_off
 627              	.LVL56:
 212:lightlib.c    **** }
 628              		.loc 1 212 0
 629              		@ sp needed
 630 001a 10BD     		pop	{r4, pc}
 631              		.cfi_endproc
 632              	.LFE39:
 633              		.size	turn_off_all_led, .-turn_off_all_led
 634              		.section	.text.init_led,"ax",%progbits
 635              		.align	1
 636              		.global	init_led
 637              		.code	16
 638              		.thumb_func
 639              		.type	init_led, %function
 640              	init_led:
 641              	.LFB40:
 213:lightlib.c    **** 
 214:lightlib.c    **** void init_led(uint8 color) {
 642              		.loc 1 214 0
 643              		.cfi_startproc
 644              		@ args = 0, pretend = 0, frame = 0
 645              		@ frame_needed = 0, uses_anonymous_args = 0
 646              	.LVL57:
 647 0000 10B5     		push	{r4, lr}
 648              		.cfi_def_cfa_offset 8
 649              		.cfi_offset 4, -8
 650              		.cfi_offset 14, -4
 651              		.loc 1 214 0
 652 0002 0400     		movs	r4, r0
 215:lightlib.c    ****     /* Turn off all leds */
 216:lightlib.c    ****     turn_off_all_led();
 653              		.loc 1 216 0
 654 0004 FFF7FEFF 		bl	turn_off_all_led
 655              	.LVL58:
 217:lightlib.c    ****     
 218:lightlib.c    ****     /* Set default led color */
 219:lightlib.c    ****     set_color(LEFT_LED, color);
 656              		.loc 1 219 0
 657 0008 2100     		movs	r1, r4
 658 000a 0120     		movs	r0, #1
 659 000c FFF7FEFF 		bl	set_color
 660              	.LVL59:
 220:lightlib.c    ****     set_color(RIGHT_LED, color);
 661              		.loc 1 220 0
 662 0010 2100     		movs	r1, r4
 663 0012 0220     		movs	r0, #2
 664 0014 FFF7FEFF 		bl	set_color
 665              	.LVL60:
 221:lightlib.c    **** }...
ARM GAS  C:\Users\ryan\AppData\Local\Temp\ccZBpz2h.s 			page 17


 666              		.loc 1 221 0
 667              		@ sp needed
 668 0018 10BD     		pop	{r4, pc}
 669              		.cfi_endproc
 670              	.LFE40:
 671              		.size	init_led, .-init_led
 672              		.comm	Board_LED_State,1,1
 673              		.comm	IR_LED_State,1,1
 674              		.comm	Right_LED_State,2,1
 675              		.comm	Left_LED_State,2,1
 676              		.text
 677              	.Letext0:
 678              		.file 2 "lightlib.h"
 679              		.file 3 "Generated_Source\\PSoC4/PWM_Left_LED_Red.h"
 680              		.file 4 "Generated_Source\\PSoC4/Left_LED_Blue.h"
 681              		.file 5 "Generated_Source\\PSoC4/Left_LED_Green.h"
 682              		.file 6 "Generated_Source\\PSoC4/PWM_Right_LED_Red.h"
 683              		.file 7 "Generated_Source\\PSoC4/Right_LED_Blue.h"
 684              		.file 8 "Generated_Source\\PSoC4/Right_LED_Green.h"
 685              		.file 9 "Generated_Source\\PSoC4/IR_LED.h"
 686              		.file 10 "Generated_Source\\PSoC4/Board_LED.h"
 687              		.file 11 "Generated_Source\\PSoC4/cytypes.h"