ARM GAS  C:\Users\ryan\AppData\Local\Temp\ccMwU9Ao.s 			page 1


   1              		.syntax unified
   2              		.cpu cortex-m0
   3              		.fpu softvfp
   4              		.eabi_attribute 20, 1
   5              		.eabi_attribute 21, 1
   6              		.eabi_attribute 23, 3
   7              		.eabi_attribute 24, 1
   8              		.eabi_attribute 25, 1
   9              		.eabi_attribute 26, 1
  10              		.eabi_attribute 30, 4
  11              		.eabi_attribute 34, 0
  12              		.eabi_attribute 18, 4
  13              		.thumb
  14              		.syntax unified
  15              		.file	"morse.c"
  16              		.text
  17              	.Ltext0:
  18              		.cfi_sections	.debug_frame
  19              		.section	.text.blinkdot,"ax",%progbits
  20              		.align	1
  21              		.global	blinkdot
  22              		.code	16
  23              		.thumb_func
  24              		.type	blinkdot, %function
  25              	blinkdot:
  26              	.LFB32:
  27              		.file 1 "morse.c"
   1:morse.c       **** /* ========================================
   2:morse.c       ****  *
   3:morse.c       ****  * Copyright Nullify, 2016
   4:morse.c       ****  * All Rights Reserved
   5:morse.c       ****  * UNPUBLISHED, LICENSED SOFTWARE.
   6:morse.c       ****  *
   7:morse.c       ****  * CONFIDENTIAL AND PROPRIETARY INFORMATION
   8:morse.c       ****  * WHICH IS THE PROPERTY OF NULLIY.
   9:morse.c       ****  *
  10:morse.c       ****  * ========================================
  11:morse.c       **** */
  12:morse.c       **** #include <project.h>
  13:morse.c       **** #include <string.h>
  14:morse.c       **** #include "lightlib.h"
  15:morse.c       **** #include "morse.h"
  16:morse.c       **** #include "state.h"
  17:morse.c       **** 
  18:morse.c       **** void blinkdot(uint8 led_flag) {
  28              		.loc 1 18 0
  29              		.cfi_startproc
  30              		@ args = 0, pretend = 0, frame = 0
  31              		@ frame_needed = 0, uses_anonymous_args = 0
  32              	.LVL0:
  33 0000 10B5     		push	{r4, lr}
  34              		.cfi_def_cfa_offset 8
  35              		.cfi_offset 4, -8
  36              		.cfi_offset 14, -4
  37              		.loc 1 18 0
  38 0002 0400     		movs	r4, r0
  19:morse.c       ****     /* Verify state */
ARM GAS  C:\Users\ryan\AppData\Local\Temp\ccMwU9Ao.s 			page 2


  20:morse.c       ****     if(!verify_state(MORSE)) {
  39              		.loc 1 20 0
  40 0004 0120     		movs	r0, #1
  41              	.LVL1:
  42 0006 FFF7FEFF 		bl	verify_state
  43              	.LVL2:
  44 000a 0028     		cmp	r0, #0
  45 000c 0CD0     		beq	.L1
  46              	.LVL3:
  47              	.LBB4:
  48              	.LBB5:
  21:morse.c       ****         return;
  22:morse.c       ****     }
  23:morse.c       ****     turn_on(led_flag);
  49              		.loc 1 23 0
  50 000e 2000     		movs	r0, r4
  51 0010 FFF7FEFF 		bl	turn_on
  52              	.LVL4:
  24:morse.c       ****     CyDelay(DOT_ON_TIME);
  53              		.loc 1 24 0
  54 0014 FA20     		movs	r0, #250
  55 0016 4000     		lsls	r0, r0, #1
  56 0018 FFF7FEFF 		bl	CyDelay
  57              	.LVL5:
  25:morse.c       ****     turn_off(led_flag);
  58              		.loc 1 25 0
  59 001c 2000     		movs	r0, r4
  60 001e FFF7FEFF 		bl	turn_off
  61              	.LVL6:
  26:morse.c       ****     CyDelay(DOT_OFF_TIME);
  62              		.loc 1 26 0
  63 0022 FA20     		movs	r0, #250
  64 0024 FFF7FEFF 		bl	CyDelay
  65              	.LVL7:
  66              	.L1:
  67              	.LBE5:
  68              	.LBE4:
  27:morse.c       **** }
  69              		.loc 1 27 0
  70              		@ sp needed
  71 0028 10BD     		pop	{r4, pc}
  72              		.cfi_endproc
  73              	.LFE32:
  74              		.size	blinkdot, .-blinkdot
  75              		.section	.text.blinkdash,"ax",%progbits
  76              		.align	1
  77              		.global	blinkdash
  78              		.code	16
  79              		.thumb_func
  80              		.type	blinkdash, %function
  81              	blinkdash:
  82              	.LFB33:
  28:morse.c       **** 
  29:morse.c       **** void blinkdash(uint8 led_flag) {
  83              		.loc 1 29 0
  84              		.cfi_startproc
  85              		@ args = 0, pretend = 0, frame = 0
ARM GAS  C:\Users\ryan\AppData\Local\Temp\ccMwU9Ao.s 			page 3


  86              		@ frame_needed = 0, uses_anonymous_args = 0
  87              	.LVL8:
  88 0000 10B5     		push	{r4, lr}
  89              		.cfi_def_cfa_offset 8
  90              		.cfi_offset 4, -8
  91              		.cfi_offset 14, -4
  92              		.loc 1 29 0
  93 0002 0400     		movs	r4, r0
  30:morse.c       ****     /* Verify state */
  31:morse.c       ****     if(!verify_state(MORSE)) {
  94              		.loc 1 31 0
  95 0004 0120     		movs	r0, #1
  96              	.LVL9:
  97 0006 FFF7FEFF 		bl	verify_state
  98              	.LVL10:
  99 000a 0028     		cmp	r0, #0
 100 000c 0BD0     		beq	.L7
 101              	.LVL11:
 102              	.LBB8:
 103              	.LBB9:
  32:morse.c       ****         return;
  33:morse.c       ****     }
  34:morse.c       ****     turn_on(led_flag);
 104              		.loc 1 34 0
 105 000e 2000     		movs	r0, r4
 106 0010 FFF7FEFF 		bl	turn_on
 107              	.LVL12:
  35:morse.c       ****     CyDelay(DASH_ON_TIME);
 108              		.loc 1 35 0
 109 0014 0448     		ldr	r0, .L12
 110 0016 FFF7FEFF 		bl	CyDelay
 111              	.LVL13:
  36:morse.c       ****     turn_off(led_flag);
 112              		.loc 1 36 0
 113 001a 2000     		movs	r0, r4
 114 001c FFF7FEFF 		bl	turn_off
 115              	.LVL14:
  37:morse.c       ****     CyDelay(DASH_OFF_TIME);
 116              		.loc 1 37 0
 117 0020 FA20     		movs	r0, #250
 118 0022 FFF7FEFF 		bl	CyDelay
 119              	.LVL15:
 120              	.L7:
 121              	.LBE9:
 122              	.LBE8:
  38:morse.c       **** }
 123              		.loc 1 38 0
 124              		@ sp needed
 125 0026 10BD     		pop	{r4, pc}
 126              	.L13:
 127              		.align	2
 128              	.L12:
 129 0028 DC050000 		.word	1500
 130              		.cfi_endproc
 131              	.LFE33:
 132              		.size	blinkdash, .-blinkdash
 133              		.section	.text.char_separate,"ax",%progbits
ARM GAS  C:\Users\ryan\AppData\Local\Temp\ccMwU9Ao.s 			page 4


 134              		.align	1
 135              		.global	char_separate
 136              		.code	16
 137              		.thumb_func
 138              		.type	char_separate, %function
 139              	char_separate:
 140              	.LFB34:
  39:morse.c       **** 
  40:morse.c       **** void char_separate(void) {
 141              		.loc 1 40 0
 142              		.cfi_startproc
 143              		@ args = 0, pretend = 0, frame = 0
 144              		@ frame_needed = 0, uses_anonymous_args = 0
 145 0000 10B5     		push	{r4, lr}
 146              		.cfi_def_cfa_offset 8
 147              		.cfi_offset 4, -8
 148              		.cfi_offset 14, -4
  41:morse.c       ****     /* Verify state */
  42:morse.c       ****     if(!verify_state(MORSE)) {
 149              		.loc 1 42 0
 150 0002 0120     		movs	r0, #1
 151 0004 FFF7FEFF 		bl	verify_state
 152              	.LVL16:
 153 0008 0028     		cmp	r0, #0
 154 000a 03D0     		beq	.L14
  43:morse.c       ****         return;
  44:morse.c       ****     }
  45:morse.c       ****     CyDelay(CHAR_SEPARATE_TIME);
 155              		.loc 1 45 0
 156 000c FA20     		movs	r0, #250
 157 000e 8000     		lsls	r0, r0, #2
 158 0010 FFF7FEFF 		bl	CyDelay
 159              	.LVL17:
 160              	.L14:
  46:morse.c       **** }
 161              		.loc 1 46 0
 162              		@ sp needed
 163 0014 10BD     		pop	{r4, pc}
 164              		.cfi_endproc
 165              	.LFE34:
 166              		.size	char_separate, .-char_separate
 167              		.section	.text.morse_encode,"ax",%progbits
 168              		.align	1
 169              		.global	morse_encode
 170              		.code	16
 171              		.thumb_func
 172              		.type	morse_encode, %function
 173              	morse_encode:
 174              	.LFB35:
  47:morse.c       **** 
  48:morse.c       **** void morse_encode(uint8 led_flag, char c){
 175              		.loc 1 48 0
 176              		.cfi_startproc
 177              		@ args = 0, pretend = 0, frame = 0
 178              		@ frame_needed = 0, uses_anonymous_args = 0
 179              	.LVL18:
 180 0000 70B5     		push	{r4, r5, r6, lr}
ARM GAS  C:\Users\ryan\AppData\Local\Temp\ccMwU9Ao.s 			page 5


 181              		.cfi_def_cfa_offset 16
 182              		.cfi_offset 4, -16
 183              		.cfi_offset 5, -12
 184              		.cfi_offset 6, -8
 185              		.cfi_offset 14, -4
 186              		.loc 1 48 0
 187 0002 0400     		movs	r4, r0
  49:morse.c       ****     /* Verify state */
  50:morse.c       ****     if(!verify_state(MORSE)) {
 188              		.loc 1 50 0
 189 0004 0120     		movs	r0, #1
 190              	.LVL19:
  48:morse.c       ****     /* Verify state */
 191              		.loc 1 48 0
 192 0006 0D00     		movs	r5, r1
 193              		.loc 1 50 0
 194 0008 FFF7FEFF 		bl	verify_state
 195              	.LVL20:
 196 000c 0028     		cmp	r0, #0
 197 000e 00D1     		bne	.LCB135
 198 0010 D1E0     		b	.L19	@long jump
 199              	.LCB135:
 200              	.LVL21:
 201              	.LBB12:
 202              	.LBB13:
  51:morse.c       ****         return;
  52:morse.c       ****     }
  53:morse.c       ****     switch(c) {
 203              		.loc 1 53 0
 204 0012 2800     		movs	r0, r5
 205 0014 2038     		subs	r0, r0, #32
 206 0016 5A28     		cmp	r0, #90
 207 0018 00D9     		bls	.LCB143
 208 001a CCE0     		b	.L19	@long jump
 209              	.LCB143:
 210 001c FFF7FEFF 		bl	__gnu_thumb1_case_uqi
 211              	.L22:
 212 0020 C7       		.byte	(.L21-.L22)/2
 213 0021 CB       		.byte	(.L19-.L22)/2
 214 0022 CB       		.byte	(.L19-.L22)/2
 215 0023 CB       		.byte	(.L19-.L22)/2
 216 0024 CB       		.byte	(.L19-.L22)/2
 217 0025 CB       		.byte	(.L19-.L22)/2
 218 0026 CB       		.byte	(.L19-.L22)/2
 219 0027 CB       		.byte	(.L19-.L22)/2
 220 0028 CB       		.byte	(.L19-.L22)/2
 221 0029 CB       		.byte	(.L19-.L22)/2
 222 002a CB       		.byte	(.L19-.L22)/2
 223 002b CB       		.byte	(.L19-.L22)/2
 224 002c B2       		.byte	(.L23-.L22)/2
 225 002d CB       		.byte	(.L19-.L22)/2
 226 002e A2       		.byte	(.L24-.L22)/2
 227 002f CB       		.byte	(.L19-.L22)/2
 228 0030 4D       		.byte	(.L25-.L22)/2
 229 0031 51       		.byte	(.L26-.L22)/2
 230 0032 58       		.byte	(.L27-.L22)/2
 231 0033 62       		.byte	(.L28-.L22)/2
ARM GAS  C:\Users\ryan\AppData\Local\Temp\ccMwU9Ao.s 			page 6


 232 0034 66       		.byte	(.L29-.L22)/2
 233 0035 70       		.byte	(.L30-.L22)/2
 234 0036 74       		.byte	(.L31-.L22)/2
 235 0037 7B       		.byte	(.L32-.L22)/2
 236 0038 85       		.byte	(.L33-.L22)/2
 237 0039 92       		.byte	(.L34-.L22)/2
 238 003a CB       		.byte	(.L19-.L22)/2
 239 003b CB       		.byte	(.L19-.L22)/2
 240 003c CB       		.byte	(.L19-.L22)/2
 241 003d CB       		.byte	(.L19-.L22)/2
 242 003e CB       		.byte	(.L19-.L22)/2
 243 003f CB       		.byte	(.L19-.L22)/2
 244 0040 CB       		.byte	(.L19-.L22)/2
 245 0041 AE       		.byte	(.L71-.L22)/2
 246 0042 7E       		.byte	(.L83-.L22)/2
 247 0043 2E       		.byte	(.L37-.L22)/2
 248 0044 8B       		.byte	(.L80-.L22)/2
 249 0045 9E       		.byte	(.L73-.L22)/2
 250 0046 32       		.byte	(.L40-.L22)/2
 251 0047 98       		.byte	(.L75-.L22)/2
 252 0048 77       		.byte	(.L85-.L22)/2
 253 0049 8E       		.byte	(.L78-.L22)/2
 254 004a 5B       		.byte	(.L70-.L22)/2
 255 004b AB       		.byte	(.L72-.L22)/2
 256 004c 39       		.byte	(.L46-.L22)/2
 257 004d BE       		.byte	(.L67-.L22)/2
 258 004e 9B       		.byte	(.L74-.L22)/2
 259 004f 5E       		.byte	(.L69-.L22)/2
 260 0050 3D       		.byte	(.L50-.L22)/2
 261 0051 41       		.byte	(.L51-.L22)/2
 262 0052 35       		.byte	(.L77-.L22)/2
 263 0053 81       		.byte	(.L84-.L22)/2
 264 0054 C1       		.byte	(.L64-.L22)/2
 265 0055 6C       		.byte	(.L81-.L22)/2
 266 0056 69       		.byte	(.L82-.L22)/2
 267 0057 BB       		.byte	(.L68-.L22)/2
 268 0058 45       		.byte	(.L58-.L22)/2
 269 0059 49       		.byte	(.L59-.L22)/2
 270 005a 88       		.byte	(.L79-.L22)/2
 271 005b CB       		.byte	(.L19-.L22)/2
 272 005c CB       		.byte	(.L19-.L22)/2
 273 005d CB       		.byte	(.L19-.L22)/2
 274 005e CB       		.byte	(.L19-.L22)/2
 275 005f CB       		.byte	(.L19-.L22)/2
 276 0060 CB       		.byte	(.L19-.L22)/2
 277 0061 AE       		.byte	(.L71-.L22)/2
 278 0062 7E       		.byte	(.L83-.L22)/2
 279 0063 2E       		.byte	(.L37-.L22)/2
 280 0064 8B       		.byte	(.L80-.L22)/2
 281 0065 9E       		.byte	(.L73-.L22)/2
 282 0066 32       		.byte	(.L40-.L22)/2
 283 0067 98       		.byte	(.L75-.L22)/2
 284 0068 77       		.byte	(.L85-.L22)/2
 285 0069 8E       		.byte	(.L78-.L22)/2
 286 006a 5B       		.byte	(.L70-.L22)/2
 287 006b AB       		.byte	(.L72-.L22)/2
 288 006c 39       		.byte	(.L46-.L22)/2
ARM GAS  C:\Users\ryan\AppData\Local\Temp\ccMwU9Ao.s 			page 7


 289 006d BE       		.byte	(.L67-.L22)/2
 290 006e 9B       		.byte	(.L74-.L22)/2
 291 006f 5E       		.byte	(.L69-.L22)/2
 292 0070 3D       		.byte	(.L50-.L22)/2
 293 0071 41       		.byte	(.L51-.L22)/2
 294 0072 35       		.byte	(.L77-.L22)/2
 295 0073 81       		.byte	(.L84-.L22)/2
 296 0074 C1       		.byte	(.L64-.L22)/2
 297 0075 6C       		.byte	(.L81-.L22)/2
 298 0076 69       		.byte	(.L82-.L22)/2
 299 0077 BB       		.byte	(.L68-.L22)/2
 300 0078 45       		.byte	(.L58-.L22)/2
 301 0079 49       		.byte	(.L59-.L22)/2
 302 007a 88       		.byte	(.L79-.L22)/2
 303 007b 00       		.p2align 1
 304              	.L37:
  54:morse.c       ****       case 'A':
  55:morse.c       ****       case 'a':
  56:morse.c       ****         blinkdot(led_flag);
  57:morse.c       ****         blinkdash(led_flag);
  58:morse.c       ****         char_separate();
  59:morse.c       ****         break;
  60:morse.c       ****       case 'B':
  61:morse.c       ****       case 'b':
  62:morse.c       ****         blinkdash(led_flag);
  63:morse.c       ****         blinkdot(led_flag);
  64:morse.c       ****         blinkdot(led_flag);
  65:morse.c       ****         blinkdot(led_flag);
  66:morse.c       ****         char_separate();
  67:morse.c       ****         break;
  68:morse.c       ****       case 'C':
  69:morse.c       ****       case 'c':
  70:morse.c       ****         blinkdash(led_flag);
 305              		.loc 1 70 0
 306 007c 2000     		movs	r0, r4
 307 007e FFF7FEFF 		bl	blinkdash
 308              	.LVL22:
 309 0082 02E0     		b	.L77
 310              	.L40:
  71:morse.c       ****         blinkdot(led_flag);
  72:morse.c       ****         blinkdash(led_flag);
  73:morse.c       ****         blinkdot(led_flag);
  74:morse.c       ****         char_separate();
  75:morse.c       ****         break;
  76:morse.c       ****       case 'D':
  77:morse.c       ****       case 'd':
  78:morse.c       ****         blinkdash(led_flag);
  79:morse.c       ****         blinkdot(led_flag);
  80:morse.c       ****         blinkdot(led_flag);
  81:morse.c       ****         char_separate();
  82:morse.c       ****         break;
  83:morse.c       ****        case 'E':
  84:morse.c       ****        case 'e':
  85:morse.c       ****         blinkdot(led_flag);
  86:morse.c       ****         char_separate();
  87:morse.c       ****         break;
  88:morse.c       ****        case 'F':
ARM GAS  C:\Users\ryan\AppData\Local\Temp\ccMwU9Ao.s 			page 8


  89:morse.c       ****        case 'f':
  90:morse.c       ****         blinkdot(led_flag);
 311              		.loc 1 90 0
 312 0084 2000     		movs	r0, r4
 313 0086 FFF7FEFF 		bl	blinkdot
 314              	.LVL23:
 315              	.L77:
  91:morse.c       ****         blinkdot(led_flag);
 316              		.loc 1 91 0
 317 008a 2000     		movs	r0, r4
 318 008c FFF7FEFF 		bl	blinkdot
 319              	.LVL24:
 320 0090 61E0     		b	.L74
 321              	.L46:
  92:morse.c       ****         blinkdash(led_flag);
  93:morse.c       ****         blinkdot(led_flag);
  94:morse.c       ****         char_separate();
  95:morse.c       ****         break;
  96:morse.c       ****        case 'G':
  97:morse.c       ****        case 'g':
  98:morse.c       ****         blinkdash(led_flag);
  99:morse.c       ****         blinkdash(led_flag);
 100:morse.c       ****         blinkdot(led_flag);
 101:morse.c       ****         char_separate();
 102:morse.c       ****         break;
 103:morse.c       ****        case 'H':
 104:morse.c       ****        case 'h':
 105:morse.c       ****         blinkdot(led_flag);
 106:morse.c       ****         blinkdot(led_flag);
 107:morse.c       ****         blinkdot(led_flag);
 108:morse.c       ****         blinkdot(led_flag);
 109:morse.c       ****         char_separate();
 110:morse.c       ****         break;
 111:morse.c       ****        case 'I':
 112:morse.c       ****        case 'i':
 113:morse.c       ****         blinkdot(led_flag);
 114:morse.c       ****         blinkdot(led_flag);
 115:morse.c       ****         char_separate();
 116:morse.c       ****         break;
 117:morse.c       ****        case 'J':
 118:morse.c       ****        case 'j':
 119:morse.c       ****         blinkdot(led_flag);
 120:morse.c       ****         blinkdash(led_flag);
 121:morse.c       ****         blinkdash(led_flag);
 122:morse.c       ****         blinkdash(led_flag);
 123:morse.c       ****         char_separate();
 124:morse.c       ****         break;
 125:morse.c       ****        case 'K':
 126:morse.c       ****        case 'k':
 127:morse.c       ****         blinkdash(led_flag);
 128:morse.c       ****         blinkdot(led_flag);
 129:morse.c       ****         blinkdash(led_flag);
 130:morse.c       ****         char_separate();
 131:morse.c       ****         break;
 132:morse.c       ****        case 'L':
 133:morse.c       ****        case 'l':
 134:morse.c       ****         blinkdot(led_flag);
ARM GAS  C:\Users\ryan\AppData\Local\Temp\ccMwU9Ao.s 			page 9


 322              		.loc 1 134 0
 323 0092 2000     		movs	r0, r4
 324 0094 FFF7FEFF 		bl	blinkdot
 325              	.LVL25:
 326 0098 4DE0     		b	.L80
 327              	.L50:
 135:morse.c       ****         blinkdash(led_flag);
 136:morse.c       ****         blinkdot(led_flag);
 137:morse.c       ****         blinkdot(led_flag);
 138:morse.c       ****         char_separate();
 139:morse.c       ****         break;
 140:morse.c       ****        case 'M':
 141:morse.c       ****        case 'm':
 142:morse.c       ****         blinkdash(led_flag);
 143:morse.c       ****         blinkdash(led_flag);
 144:morse.c       ****         char_separate();
 145:morse.c       ****         break;
 146:morse.c       ****        case 'N':
 147:morse.c       ****        case 'n':
 148:morse.c       ****         blinkdash(led_flag);
 149:morse.c       ****         blinkdot(led_flag);
 150:morse.c       ****         char_separate();
 151:morse.c       ****         break;
 152:morse.c       ****        case 'O':
 153:morse.c       ****        case 'o':
 154:morse.c       ****         blinkdash(led_flag);
 155:morse.c       ****         blinkdash(led_flag);
 156:morse.c       ****         blinkdash(led_flag);
 157:morse.c       ****         char_separate();
 158:morse.c       ****         break;
 159:morse.c       ****        case 'P':
 160:morse.c       ****        case 'p':
 161:morse.c       ****         blinkdot(led_flag);
 328              		.loc 1 161 0
 329 009a 2000     		movs	r0, r4
 330 009c FFF7FEFF 		bl	blinkdot
 331              	.LVL26:
 332 00a0 56E0     		b	.L75
 333              	.L51:
 162:morse.c       ****         blinkdash(led_flag);
 163:morse.c       ****         blinkdash(led_flag);
 164:morse.c       ****         blinkdot(led_flag);
 165:morse.c       ****         char_separate();
 166:morse.c       ****         break;
 167:morse.c       ****        case 'Q':
 168:morse.c       ****        case 'q':
 169:morse.c       ****         blinkdash(led_flag);
 334              		.loc 1 169 0
 335 00a2 2000     		movs	r0, r4
 336 00a4 FFF7FEFF 		bl	blinkdash
 337              	.LVL27:
 338 00a8 65E0     		b	.L72
 339              	.L58:
 170:morse.c       ****         blinkdash(led_flag);
 171:morse.c       ****         blinkdot(led_flag);
 172:morse.c       ****         blinkdash(led_flag);
 173:morse.c       ****         char_separate();
ARM GAS  C:\Users\ryan\AppData\Local\Temp\ccMwU9Ao.s 			page 10


 174:morse.c       ****         break;
 175:morse.c       ****        case 'R':
 176:morse.c       ****        case 'r':
 177:morse.c       ****         blinkdot(led_flag);
 178:morse.c       ****         blinkdash(led_flag);
 179:morse.c       ****         blinkdot(led_flag);
 180:morse.c       ****         char_separate();
 181:morse.c       ****         break;
 182:morse.c       ****        case 'S':
 183:morse.c       ****        case 's':
 184:morse.c       ****         blinkdot(led_flag);
 185:morse.c       ****         blinkdot(led_flag);
 186:morse.c       ****         blinkdot(led_flag);
 187:morse.c       ****         char_separate();
 188:morse.c       ****         break;
 189:morse.c       ****        case 'T':
 190:morse.c       ****        case 't':
 191:morse.c       ****         blinkdash(led_flag);
 192:morse.c       ****         char_separate();
 193:morse.c       ****         break;
 194:morse.c       ****        case 'U':
 195:morse.c       ****        case 'u':
 196:morse.c       ****         blinkdot(led_flag);
 197:morse.c       ****         blinkdot(led_flag);
 198:morse.c       ****         blinkdash(led_flag);
 199:morse.c       ****         char_separate();
 200:morse.c       ****         break;
 201:morse.c       ****        case 'V':
 202:morse.c       ****        case 'v':
 203:morse.c       ****         blinkdot(led_flag);
 204:morse.c       ****         blinkdot(led_flag);
 205:morse.c       ****         blinkdot(led_flag);
 206:morse.c       ****         blinkdash(led_flag);
 207:morse.c       ****         char_separate();
 208:morse.c       ****         break;
 209:morse.c       ****        case 'W':
 210:morse.c       ****        case 'w':
 211:morse.c       ****         blinkdot(led_flag);
 212:morse.c       ****         blinkdash(led_flag);
 213:morse.c       ****         blinkdash(led_flag);
 214:morse.c       ****         char_separate();
 215:morse.c       ****         break;
 216:morse.c       ****        case 'X':
 217:morse.c       ****        case 'x':
 218:morse.c       ****         blinkdash(led_flag);
 340              		.loc 1 218 0
 341 00aa 2000     		movs	r0, r4
 342 00ac FFF7FEFF 		bl	blinkdash
 343              	.LVL28:
 344 00b0 22E0     		b	.L81
 345              	.L59:
 219:morse.c       ****         blinkdot(led_flag);
 220:morse.c       ****         blinkdot(led_flag);
 221:morse.c       ****         blinkdash(led_flag);
 222:morse.c       ****         char_separate();
 223:morse.c       ****         break;
 224:morse.c       ****        case 'Y':
ARM GAS  C:\Users\ryan\AppData\Local\Temp\ccMwU9Ao.s 			page 11


 225:morse.c       ****        case 'y':
 226:morse.c       ****         blinkdash(led_flag);
 346              		.loc 1 226 0
 347 00b2 2000     		movs	r0, r4
 348 00b4 FFF7FEFF 		bl	blinkdash
 349              	.LVL29:
 350 00b8 6DE0     		b	.L68
 351              	.L25:
 227:morse.c       ****         blinkdot(led_flag);
 228:morse.c       ****         blinkdash(led_flag);
 229:morse.c       ****         blinkdash(led_flag);
 230:morse.c       ****         char_separate();
 231:morse.c       ****         break;
 232:morse.c       ****        case 'Z':
 233:morse.c       ****        case 'z':
 234:morse.c       ****         blinkdash(led_flag);
 235:morse.c       ****         blinkdash(led_flag);
 236:morse.c       ****         blinkdot(led_flag);
 237:morse.c       ****         blinkdot(led_flag);
 238:morse.c       ****         char_separate();
 239:morse.c       ****         break;
 240:morse.c       ****        case '0':
 241:morse.c       ****         blinkdash(led_flag);
 352              		.loc 1 241 0
 353 00ba 2000     		movs	r0, r4
 354 00bc FFF7FEFF 		bl	blinkdash
 355              	.LVL30:
 356 00c0 02E0     		b	.L76
 357              	.L26:
 242:morse.c       ****         blinkdash(led_flag);
 243:morse.c       ****         blinkdash(led_flag);
 244:morse.c       ****         blinkdash(led_flag);
 245:morse.c       ****         blinkdash(led_flag);
 246:morse.c       ****         char_separate();
 247:morse.c       ****         break;
 248:morse.c       ****        case '1':
 249:morse.c       ****         blinkdot(led_flag);
 358              		.loc 1 249 0
 359 00c2 2000     		movs	r0, r4
 360 00c4 FFF7FEFF 		bl	blinkdot
 361              	.LVL31:
 362              	.L76:
 250:morse.c       ****         blinkdash(led_flag);
 363              		.loc 1 250 0
 364 00c8 2000     		movs	r0, r4
 365 00ca FFF7FEFF 		bl	blinkdash
 366              	.LVL32:
 367 00ce 05E0     		b	.L69
 368              	.L27:
 251:morse.c       ****         blinkdash(led_flag);
 252:morse.c       ****         blinkdash(led_flag);
 253:morse.c       ****         blinkdash(led_flag);
 254:morse.c       ****         char_separate();
 255:morse.c       ****         break;
 256:morse.c       ****        case '2':
 257:morse.c       ****         blinkdot(led_flag);
 369              		.loc 1 257 0
ARM GAS  C:\Users\ryan\AppData\Local\Temp\ccMwU9Ao.s 			page 12


 370 00d0 2000     		movs	r0, r4
 371 00d2 FFF7FEFF 		bl	blinkdot
 372              	.LVL33:
 373              	.L70:
 258:morse.c       ****         blinkdot(led_flag);
 374              		.loc 1 258 0
 375 00d6 2000     		movs	r0, r4
 376 00d8 FFF7FEFF 		bl	blinkdot
 377              	.LVL34:
 378              	.L69:
 259:morse.c       ****         blinkdash(led_flag);
 379              		.loc 1 259 0
 380 00dc 2000     		movs	r0, r4
 381 00de FFF7FEFF 		bl	blinkdash
 382              	.LVL35:
 383 00e2 5BE0     		b	.L67
 384              	.L28:
 260:morse.c       ****         blinkdash(led_flag);
 261:morse.c       ****         blinkdash(led_flag);
 262:morse.c       ****         char_separate();
 263:morse.c       ****         break;
 264:morse.c       ****        case '3':
 265:morse.c       ****         blinkdot(led_flag);
 385              		.loc 1 265 0
 386 00e4 2000     		movs	r0, r4
 387 00e6 FFF7FEFF 		bl	blinkdot
 388              	.LVL36:
 389 00ea 51E0     		b	.L66
 390              	.L29:
 266:morse.c       ****         blinkdot(led_flag);
 267:morse.c       ****         blinkdot(led_flag);
 268:morse.c       ****         blinkdash(led_flag);
 269:morse.c       ****         blinkdash(led_flag);
 270:morse.c       ****         char_separate();
 271:morse.c       ****         break;
 272:morse.c       ****        case '4':
 273:morse.c       ****         blinkdot(led_flag);
 391              		.loc 1 273 0
 392 00ec 2000     		movs	r0, r4
 393 00ee FFF7FEFF 		bl	blinkdot
 394              	.LVL37:
 395              	.L82:
 274:morse.c       ****         blinkdot(led_flag);
 396              		.loc 1 274 0
 397 00f2 2000     		movs	r0, r4
 398 00f4 FFF7FEFF 		bl	blinkdot
 399              	.LVL38:
 400              	.L81:
 275:morse.c       ****         blinkdot(led_flag);
 401              		.loc 1 275 0
 402 00f8 2000     		movs	r0, r4
 403 00fa FFF7FEFF 		bl	blinkdot
 404              	.LVL39:
 405 00fe 3DE0     		b	.L71
 406              	.L30:
 276:morse.c       ****         blinkdot(led_flag);
 277:morse.c       ****         blinkdash(led_flag);
ARM GAS  C:\Users\ryan\AppData\Local\Temp\ccMwU9Ao.s 			page 13


 278:morse.c       ****         char_separate();
 279:morse.c       ****         break;
 280:morse.c       ****        case '5':
 281:morse.c       ****         blinkdot(led_flag);
 407              		.loc 1 281 0
 408 0100 2000     		movs	r0, r4
 409 0102 FFF7FEFF 		bl	blinkdot
 410              	.LVL40:
 411 0106 02E0     		b	.L85
 412              	.L31:
 282:morse.c       ****         blinkdot(led_flag);
 283:morse.c       ****         blinkdot(led_flag);
 284:morse.c       ****         blinkdot(led_flag);
 285:morse.c       ****         blinkdot(led_flag);
 286:morse.c       ****         char_separate();
 287:morse.c       ****         break;
 288:morse.c       ****        case '6':
 289:morse.c       ****         blinkdash(led_flag);
 413              		.loc 1 289 0
 414 0108 2000     		movs	r0, r4
 415 010a FFF7FEFF 		bl	blinkdash
 416              	.LVL41:
 417              	.L85:
 290:morse.c       ****         blinkdot(led_flag);
 418              		.loc 1 290 0
 419 010e 2000     		movs	r0, r4
 420 0110 FFF7FEFF 		bl	blinkdot
 421              	.LVL42:
 422 0114 05E0     		b	.L84
 423              	.L32:
 291:morse.c       ****         blinkdot(led_flag);
 292:morse.c       ****         blinkdot(led_flag);
 293:morse.c       ****         blinkdot(led_flag);
 294:morse.c       ****         char_separate();
 295:morse.c       ****         break;
 296:morse.c       ****        case '7':
 297:morse.c       ****         blinkdash(led_flag);
 424              		.loc 1 297 0
 425 0116 2000     		movs	r0, r4
 426 0118 FFF7FEFF 		bl	blinkdash
 427              	.LVL43:
 428              	.L83:
 298:morse.c       ****         blinkdash(led_flag);
 429              		.loc 1 298 0
 430 011c 2000     		movs	r0, r4
 431 011e FFF7FEFF 		bl	blinkdash
 432              	.LVL44:
 433              	.L84:
 299:morse.c       ****         blinkdot(led_flag);
 434              		.loc 1 299 0
 435 0122 2000     		movs	r0, r4
 436 0124 FFF7FEFF 		bl	blinkdot
 437              	.LVL45:
 438 0128 08E0     		b	.L78
 439              	.L33:
 300:morse.c       ****         blinkdot(led_flag);
 301:morse.c       ****         blinkdot(led_flag);
ARM GAS  C:\Users\ryan\AppData\Local\Temp\ccMwU9Ao.s 			page 14


 302:morse.c       ****         char_separate();
 303:morse.c       ****         break;
 304:morse.c       ****        case '8':
 305:morse.c       ****         blinkdash(led_flag);
 440              		.loc 1 305 0
 441 012a 2000     		movs	r0, r4
 442 012c FFF7FEFF 		bl	blinkdash
 443              	.LVL46:
 444              	.L79:
 306:morse.c       ****         blinkdash(led_flag);
 445              		.loc 1 306 0
 446 0130 2000     		movs	r0, r4
 447 0132 FFF7FEFF 		bl	blinkdash
 448              	.LVL47:
 449              	.L80:
 307:morse.c       ****         blinkdash(led_flag);
 450              		.loc 1 307 0
 451 0136 2000     		movs	r0, r4
 452 0138 FFF7FEFF 		bl	blinkdash
 453              	.LVL48:
 454              	.L78:
 308:morse.c       ****         blinkdot(led_flag);
 455              		.loc 1 308 0
 456 013c 2000     		movs	r0, r4
 457 013e FFF7FEFF 		bl	blinkdot
 458              	.LVL49:
 459 0142 0BE0     		b	.L73
 460              	.L34:
 309:morse.c       ****         blinkdot(led_flag);
 310:morse.c       ****         char_separate();
 311:morse.c       ****         break;
 312:morse.c       ****        case '9':
 313:morse.c       ****         blinkdash(led_flag);
 461              		.loc 1 313 0
 462 0144 2000     		movs	r0, r4
 463 0146 FFF7FEFF 		bl	blinkdash
 464              	.LVL50:
 314:morse.c       ****         blinkdash(led_flag);
 465              		.loc 1 314 0
 466 014a 2000     		movs	r0, r4
 467 014c FFF7FEFF 		bl	blinkdash
 468              	.LVL51:
 469              	.L75:
 315:morse.c       ****         blinkdash(led_flag);
 470              		.loc 1 315 0
 471 0150 2000     		movs	r0, r4
 472 0152 FFF7FEFF 		bl	blinkdash
 473              	.LVL52:
 474              	.L74:
 316:morse.c       ****         blinkdash(led_flag);
 475              		.loc 1 316 0
 476 0156 2000     		movs	r0, r4
 477 0158 FFF7FEFF 		bl	blinkdash
 478              	.LVL53:
 479              	.L73:
 317:morse.c       ****         blinkdot(led_flag);
 480              		.loc 1 317 0
ARM GAS  C:\Users\ryan\AppData\Local\Temp\ccMwU9Ao.s 			page 15


 481 015c 2000     		movs	r0, r4
 482 015e FFF7FEFF 		bl	blinkdot
 483              	.LVL54:
 484 0162 21E0     		b	.L65
 485              	.L24:
 318:morse.c       ****         char_separate();
 319:morse.c       ****         break;
 320:morse.c       ****        case '.':
 321:morse.c       ****         blinkdot(led_flag);
 486              		.loc 1 321 0
 487 0164 2000     		movs	r0, r4
 488 0166 FFF7FEFF 		bl	blinkdot
 489              	.LVL55:
 322:morse.c       ****         blinkdash(led_flag);
 490              		.loc 1 322 0
 491 016a 2000     		movs	r0, r4
 492 016c FFF7FEFF 		bl	blinkdash
 493              	.LVL56:
 323:morse.c       ****         blinkdot(led_flag);
 494              		.loc 1 323 0
 495 0170 2000     		movs	r0, r4
 496 0172 FFF7FEFF 		bl	blinkdot
 497              	.LVL57:
 498              	.L72:
 324:morse.c       ****         blinkdash(led_flag);
 499              		.loc 1 324 0
 500 0176 2000     		movs	r0, r4
 501 0178 FFF7FEFF 		bl	blinkdash
 502              	.LVL58:
 503              	.L71:
 325:morse.c       ****         blinkdot(led_flag);
 504              		.loc 1 325 0
 505 017c 2000     		movs	r0, r4
 506 017e FFF7FEFF 		bl	blinkdot
 507              	.LVL59:
 508 0182 0EE0     		b	.L64
 509              	.L23:
 326:morse.c       ****         blinkdash(led_flag);
 327:morse.c       ****         char_separate();
 328:morse.c       ****         break;
 329:morse.c       ****        case ',':
 330:morse.c       ****         blinkdash(led_flag);
 510              		.loc 1 330 0
 511 0184 2000     		movs	r0, r4
 512 0186 FFF7FEFF 		bl	blinkdash
 513              	.LVL60:
 331:morse.c       ****         blinkdash(led_flag);
 514              		.loc 1 331 0
 515 018a 2000     		movs	r0, r4
 516 018c FFF7FEFF 		bl	blinkdash
 517              	.LVL61:
 518              	.L66:
 332:morse.c       ****         blinkdot(led_flag);
 519              		.loc 1 332 0
 520 0190 2000     		movs	r0, r4
 521 0192 FFF7FEFF 		bl	blinkdot
 522              	.LVL62:
ARM GAS  C:\Users\ryan\AppData\Local\Temp\ccMwU9Ao.s 			page 16


 523              	.L68:
 333:morse.c       ****         blinkdot(led_flag);
 524              		.loc 1 333 0
 525 0196 2000     		movs	r0, r4
 526 0198 FFF7FEFF 		bl	blinkdot
 527              	.LVL63:
 528              	.L67:
 334:morse.c       ****         blinkdash(led_flag);
 529              		.loc 1 334 0
 530 019c 2000     		movs	r0, r4
 531 019e FFF7FEFF 		bl	blinkdash
 532              	.LVL64:
 533              	.L64:
 335:morse.c       ****         blinkdash(led_flag);
 534              		.loc 1 335 0
 535 01a2 2000     		movs	r0, r4
 536 01a4 FFF7FEFF 		bl	blinkdash
 537              	.LVL65:
 538              	.L65:
 336:morse.c       ****         char_separate();
 539              		.loc 1 336 0
 540 01a8 FFF7FEFF 		bl	char_separate
 541              	.LVL66:
 542 01ac 03E0     		b	.L19
 543              	.L21:
 337:morse.c       ****         break;
 338:morse.c       ****        case ' ':
 339:morse.c       ****         CyDelay(WORD_SEPARATE_TIME);
 544              		.loc 1 339 0
 545 01ae FA20     		movs	r0, #250
 546 01b0 8000     		lsls	r0, r0, #2
 547 01b2 FFF7FEFF 		bl	CyDelay
 548              	.LVL67:
 549              	.L19:
 550              	.LBE13:
 551              	.LBE12:
 340:morse.c       ****         break;
 341:morse.c       ****        case '\n':
 342:morse.c       ****         break;
 343:morse.c       ****    }
 344:morse.c       **** }
 552              		.loc 1 344 0
 553              		@ sp needed
 554 01b6 70BD     		pop	{r4, r5, r6, pc}
 555              		.cfi_endproc
 556              	.LFE35:
 557              		.size	morse_encode, .-morse_encode
 558              		.section	.text.morse_message,"ax",%progbits
 559              		.align	1
 560              		.global	morse_message
 561              		.code	16
 562              		.thumb_func
 563              		.type	morse_message, %function
 564              	morse_message:
 565              	.LFB36:
 345:morse.c       **** 
 346:morse.c       **** void morse_message(uint8 led_flag, char* message) {
ARM GAS  C:\Users\ryan\AppData\Local\Temp\ccMwU9Ao.s 			page 17


 566              		.loc 1 346 0
 567              		.cfi_startproc
 568              		@ args = 0, pretend = 0, frame = 0
 569              		@ frame_needed = 0, uses_anonymous_args = 0
 570              	.LVL68:
 571 0000 70B5     		push	{r4, r5, r6, lr}
 572              		.cfi_def_cfa_offset 16
 573              		.cfi_offset 4, -16
 574              		.cfi_offset 5, -12
 575              		.cfi_offset 6, -8
 576              		.cfi_offset 14, -4
 577              		.loc 1 346 0
 578 0002 0600     		movs	r6, r0
 579 0004 0D00     		movs	r5, r1
 347:morse.c       ****     unsigned int i;
 348:morse.c       ****         
 349:morse.c       ****     for (i=0; i < strlen(message); i++) {
 580              		.loc 1 349 0
 581 0006 0024     		movs	r4, #0
 582              	.LVL69:
 583              	.L87:
 584              		.loc 1 349 0 is_stmt 0 discriminator 1
 585 0008 2800     		movs	r0, r5
 586 000a FFF7FEFF 		bl	strlen
 587              	.LVL70:
 588 000e 8442     		cmp	r4, r0
 589 0010 0AD2     		bcs	.L86
 350:morse.c       ****         /* Verify state */
 351:morse.c       ****         if(!verify_state(MORSE)) {
 590              		.loc 1 351 0 is_stmt 1
 591 0012 0120     		movs	r0, #1
 592 0014 FFF7FEFF 		bl	verify_state
 593              	.LVL71:
 594 0018 0028     		cmp	r0, #0
 595 001a 05D0     		beq	.L86
 352:morse.c       ****             return;
 353:morse.c       ****         }
 354:morse.c       ****         morse_encode(led_flag, message[i]);
 596              		.loc 1 354 0 discriminator 2
 597 001c 295D     		ldrb	r1, [r5, r4]
 598 001e 3000     		movs	r0, r6
 599 0020 FFF7FEFF 		bl	morse_encode
 600              	.LVL72:
 349:morse.c       ****         /* Verify state */
 601              		.loc 1 349 0 discriminator 2
 602 0024 0134     		adds	r4, r4, #1
 603              	.LVL73:
 604 0026 EFE7     		b	.L87
 605              	.L86:
 355:morse.c       ****     }
 356:morse.c       **** }
 606              		.loc 1 356 0
 607              		@ sp needed
 608              	.LVL74:
 609              	.LVL75:
 610 0028 70BD     		pop	{r4, r5, r6, pc}
 611              		.cfi_endproc
ARM GAS  C:\Users\ryan\AppData\Local\Temp\ccMwU9Ao.s 			page 18


 612              	.LFE36:
 613              		.size	morse_message, .-morse_message
 614              		.text
 615              	.Letext0:
 616              		.file 2 "lightlib.h"
 617              		.file 3 "Generated_Source\\PSoC4/CyLib.h"
 618              		.file 4 "state.h"
 619              		.file 5 "c:\\program files (x86)\\cypress\\psoc creator\\4.1\\psoc creator\\import\\gnu\\arm\\5.4.
 620              		.file 6 "Generated_Source\\PSoC4/cytypes.h"