ARM GAS  C:\Users\ryan\AppData\Local\Temp\ccwvYQ1o.s 			page 1


   1              		.syntax unified
   2              		.cpu cortex-m0
   3              		.fpu softvfp
   4              		.eabi_attribute 20, 1
   5              		.eabi_attribute 21, 1
   6              		.eabi_attribute 23, 3
   7              		.eabi_attribute 24, 1
   8              		.eabi_attribute 25, 1
   9              		.eabi_attribute 26, 1
  10              		.eabi_attribute 30, 4
  11              		.eabi_attribute 34, 0
  12              		.eabi_attribute 18, 4
  13              		.thumb
  14              		.syntax unified
  15              		.file	"PWM_Defcon_PM.c"
  16              		.text
  17              	.Ltext0:
  18              		.cfi_sections	.debug_frame
  19              		.section	.text.PWM_Defcon_SaveConfig,"ax",%progbits
  20              		.align	1
  21              		.global	PWM_Defcon_SaveConfig
  22              		.code	16
  23              		.thumb_func
  24              		.type	PWM_Defcon_SaveConfig, %function
  25              	PWM_Defcon_SaveConfig:
  26              	.LFB0:
  27              		.file 1 "Generated_Source\\PSoC4\\PWM_Defcon_PM.c"
   1:Generated_Source\PSoC4/PWM_Defcon_PM.c **** /*******************************************************************************
   2:Generated_Source\PSoC4/PWM_Defcon_PM.c **** * File Name: PWM_Defcon_PM.c
   3:Generated_Source\PSoC4/PWM_Defcon_PM.c **** * Version 3.30
   4:Generated_Source\PSoC4/PWM_Defcon_PM.c **** *
   5:Generated_Source\PSoC4/PWM_Defcon_PM.c **** * Description:
   6:Generated_Source\PSoC4/PWM_Defcon_PM.c **** *  This file provides the power management source code to API for the
   7:Generated_Source\PSoC4/PWM_Defcon_PM.c **** *  PWM.
   8:Generated_Source\PSoC4/PWM_Defcon_PM.c **** *
   9:Generated_Source\PSoC4/PWM_Defcon_PM.c **** * Note:
  10:Generated_Source\PSoC4/PWM_Defcon_PM.c **** *
  11:Generated_Source\PSoC4/PWM_Defcon_PM.c **** ********************************************************************************
  12:Generated_Source\PSoC4/PWM_Defcon_PM.c **** * Copyright 2008-2014, Cypress Semiconductor Corporation.  All rights reserved.
  13:Generated_Source\PSoC4/PWM_Defcon_PM.c **** * You may use this file only in accordance with the license, terms, conditions,
  14:Generated_Source\PSoC4/PWM_Defcon_PM.c **** * disclaimers, and limitations in the end user license agreement accompanying
  15:Generated_Source\PSoC4/PWM_Defcon_PM.c **** * the software package with which this file was provided.
  16:Generated_Source\PSoC4/PWM_Defcon_PM.c **** *******************************************************************************/
  17:Generated_Source\PSoC4/PWM_Defcon_PM.c **** 
  18:Generated_Source\PSoC4/PWM_Defcon_PM.c **** #include "PWM_Defcon.h"
  19:Generated_Source\PSoC4/PWM_Defcon_PM.c **** 
  20:Generated_Source\PSoC4/PWM_Defcon_PM.c **** static PWM_Defcon_backupStruct PWM_Defcon_backup;
  21:Generated_Source\PSoC4/PWM_Defcon_PM.c **** 
  22:Generated_Source\PSoC4/PWM_Defcon_PM.c **** 
  23:Generated_Source\PSoC4/PWM_Defcon_PM.c **** /*******************************************************************************
  24:Generated_Source\PSoC4/PWM_Defcon_PM.c **** * Function Name: PWM_Defcon_SaveConfig
  25:Generated_Source\PSoC4/PWM_Defcon_PM.c **** ********************************************************************************
  26:Generated_Source\PSoC4/PWM_Defcon_PM.c **** *
  27:Generated_Source\PSoC4/PWM_Defcon_PM.c **** * Summary:
  28:Generated_Source\PSoC4/PWM_Defcon_PM.c **** *  Saves the current user configuration of the component.
  29:Generated_Source\PSoC4/PWM_Defcon_PM.c **** *
  30:Generated_Source\PSoC4/PWM_Defcon_PM.c **** * Parameters:
ARM GAS  C:\Users\ryan\AppData\Local\Temp\ccwvYQ1o.s 			page 2


  31:Generated_Source\PSoC4/PWM_Defcon_PM.c **** *  None
  32:Generated_Source\PSoC4/PWM_Defcon_PM.c **** *
  33:Generated_Source\PSoC4/PWM_Defcon_PM.c **** * Return:
  34:Generated_Source\PSoC4/PWM_Defcon_PM.c **** *  None
  35:Generated_Source\PSoC4/PWM_Defcon_PM.c **** *
  36:Generated_Source\PSoC4/PWM_Defcon_PM.c **** * Global variables:
  37:Generated_Source\PSoC4/PWM_Defcon_PM.c **** *  PWM_Defcon_backup:  Variables of this global structure are modified to
  38:Generated_Source\PSoC4/PWM_Defcon_PM.c **** *  store the values of non retention configuration registers when Sleep() API is
  39:Generated_Source\PSoC4/PWM_Defcon_PM.c **** *  called.
  40:Generated_Source\PSoC4/PWM_Defcon_PM.c **** *
  41:Generated_Source\PSoC4/PWM_Defcon_PM.c **** *******************************************************************************/
  42:Generated_Source\PSoC4/PWM_Defcon_PM.c **** void PWM_Defcon_SaveConfig(void) 
  43:Generated_Source\PSoC4/PWM_Defcon_PM.c **** {
  28              		.loc 1 43 0
  29              		.cfi_startproc
  30              		@ args = 0, pretend = 0, frame = 0
  31              		@ frame_needed = 0, uses_anonymous_args = 0
  32 0000 10B5     		push	{r4, lr}
  33              		.cfi_def_cfa_offset 8
  34              		.cfi_offset 4, -8
  35              		.cfi_offset 14, -4
  44:Generated_Source\PSoC4/PWM_Defcon_PM.c **** 
  45:Generated_Source\PSoC4/PWM_Defcon_PM.c ****     #if(!PWM_Defcon_UsingFixedFunction)
  46:Generated_Source\PSoC4/PWM_Defcon_PM.c ****         #if(!PWM_Defcon_PWMModeIsCenterAligned)
  47:Generated_Source\PSoC4/PWM_Defcon_PM.c ****             PWM_Defcon_backup.PWMPeriod = PWM_Defcon_ReadPeriod();
  36              		.loc 1 47 0
  37 0002 FFF7FEFF 		bl	PWM_Defcon_ReadPeriod
  38              	.LVL0:
  39 0006 064C     		ldr	r4, .L2
  48:Generated_Source\PSoC4/PWM_Defcon_PM.c ****         #endif /* (!PWM_Defcon_PWMModeIsCenterAligned) */
  49:Generated_Source\PSoC4/PWM_Defcon_PM.c ****         PWM_Defcon_backup.PWMUdb = PWM_Defcon_ReadCounter();
  50:Generated_Source\PSoC4/PWM_Defcon_PM.c ****         #if (PWM_Defcon_UseStatus)
  51:Generated_Source\PSoC4/PWM_Defcon_PM.c ****             PWM_Defcon_backup.InterruptMaskValue = PWM_Defcon_STATUS_MASK;
  52:Generated_Source\PSoC4/PWM_Defcon_PM.c ****         #endif /* (PWM_Defcon_UseStatus) */
  53:Generated_Source\PSoC4/PWM_Defcon_PM.c **** 
  54:Generated_Source\PSoC4/PWM_Defcon_PM.c ****         #if(PWM_Defcon_DeadBandMode == PWM_Defcon__B_PWM__DBM_256_CLOCKS || \
  55:Generated_Source\PSoC4/PWM_Defcon_PM.c ****             PWM_Defcon_DeadBandMode == PWM_Defcon__B_PWM__DBM_2_4_CLOCKS)
  56:Generated_Source\PSoC4/PWM_Defcon_PM.c ****             PWM_Defcon_backup.PWMdeadBandValue = PWM_Defcon_ReadDeadTime();
  57:Generated_Source\PSoC4/PWM_Defcon_PM.c ****         #endif /*  deadband count is either 2-4 clocks or 256 clocks */
  58:Generated_Source\PSoC4/PWM_Defcon_PM.c **** 
  59:Generated_Source\PSoC4/PWM_Defcon_PM.c ****         #if(PWM_Defcon_KillModeMinTime)
  60:Generated_Source\PSoC4/PWM_Defcon_PM.c ****              PWM_Defcon_backup.PWMKillCounterPeriod = PWM_Defcon_ReadKillTime();
  61:Generated_Source\PSoC4/PWM_Defcon_PM.c ****         #endif /* (PWM_Defcon_KillModeMinTime) */
  62:Generated_Source\PSoC4/PWM_Defcon_PM.c **** 
  63:Generated_Source\PSoC4/PWM_Defcon_PM.c ****         #if(PWM_Defcon_UseControl)
  64:Generated_Source\PSoC4/PWM_Defcon_PM.c ****             PWM_Defcon_backup.PWMControlRegister = PWM_Defcon_ReadControlRegister();
  65:Generated_Source\PSoC4/PWM_Defcon_PM.c ****         #endif /* (PWM_Defcon_UseControl) */
  66:Generated_Source\PSoC4/PWM_Defcon_PM.c ****     #endif  /* (!PWM_Defcon_UsingFixedFunction) */
  67:Generated_Source\PSoC4/PWM_Defcon_PM.c **** }
  40              		.loc 1 67 0
  41              		@ sp needed
  47:Generated_Source\PSoC4/PWM_Defcon_PM.c ****         #endif /* (!PWM_Defcon_PWMModeIsCenterAligned) */
  42              		.loc 1 47 0
  43 0008 A080     		strh	r0, [r4, #4]
  49:Generated_Source\PSoC4/PWM_Defcon_PM.c ****         #if (PWM_Defcon_UseStatus)
  44              		.loc 1 49 0
  45 000a FFF7FEFF 		bl	PWM_Defcon_ReadCounter
ARM GAS  C:\Users\ryan\AppData\Local\Temp\ccwvYQ1o.s 			page 3


  46              	.LVL1:
  51:Generated_Source\PSoC4/PWM_Defcon_PM.c ****         #endif /* (PWM_Defcon_UseStatus) */
  47              		.loc 1 51 0
  48 000e 054B     		ldr	r3, .L2+4
  49:Generated_Source\PSoC4/PWM_Defcon_PM.c ****         #if (PWM_Defcon_UseStatus)
  49              		.loc 1 49 0
  50 0010 6080     		strh	r0, [r4, #2]
  51:Generated_Source\PSoC4/PWM_Defcon_PM.c ****         #endif /* (PWM_Defcon_UseStatus) */
  51              		.loc 1 51 0
  52 0012 1B78     		ldrb	r3, [r3]
  53 0014 A371     		strb	r3, [r4, #6]
  64:Generated_Source\PSoC4/PWM_Defcon_PM.c ****         #endif /* (PWM_Defcon_UseControl) */
  54              		.loc 1 64 0
  55 0016 FFF7FEFF 		bl	PWM_Defcon_ReadControlRegister
  56              	.LVL2:
  57 001a E071     		strb	r0, [r4, #7]
  58              		.loc 1 67 0
  59 001c 10BD     		pop	{r4, pc}
  60              	.L3:
  61 001e C046     		.align	2
  62              	.L2:
  63 0020 00000000 		.word	.LANCHOR0
  64 0024 81000F40 		.word	1074724993
  65              		.cfi_endproc
  66              	.LFE0:
  67              		.size	PWM_Defcon_SaveConfig, .-PWM_Defcon_SaveConfig
  68              		.section	.text.PWM_Defcon_RestoreConfig,"ax",%progbits
  69              		.align	1
  70              		.global	PWM_Defcon_RestoreConfig
  71              		.code	16
  72              		.thumb_func
  73              		.type	PWM_Defcon_RestoreConfig, %function
  74              	PWM_Defcon_RestoreConfig:
  75              	.LFB1:
  68:Generated_Source\PSoC4/PWM_Defcon_PM.c **** 
  69:Generated_Source\PSoC4/PWM_Defcon_PM.c **** 
  70:Generated_Source\PSoC4/PWM_Defcon_PM.c **** /*******************************************************************************
  71:Generated_Source\PSoC4/PWM_Defcon_PM.c **** * Function Name: PWM_Defcon_RestoreConfig
  72:Generated_Source\PSoC4/PWM_Defcon_PM.c **** ********************************************************************************
  73:Generated_Source\PSoC4/PWM_Defcon_PM.c **** *
  74:Generated_Source\PSoC4/PWM_Defcon_PM.c **** * Summary:
  75:Generated_Source\PSoC4/PWM_Defcon_PM.c **** *  Restores the current user configuration of the component.
  76:Generated_Source\PSoC4/PWM_Defcon_PM.c **** *
  77:Generated_Source\PSoC4/PWM_Defcon_PM.c **** * Parameters:
  78:Generated_Source\PSoC4/PWM_Defcon_PM.c **** *  None
  79:Generated_Source\PSoC4/PWM_Defcon_PM.c **** *
  80:Generated_Source\PSoC4/PWM_Defcon_PM.c **** * Return:
  81:Generated_Source\PSoC4/PWM_Defcon_PM.c **** *  None
  82:Generated_Source\PSoC4/PWM_Defcon_PM.c **** *
  83:Generated_Source\PSoC4/PWM_Defcon_PM.c **** * Global variables:
  84:Generated_Source\PSoC4/PWM_Defcon_PM.c **** *  PWM_Defcon_backup:  Variables of this global structure are used to
  85:Generated_Source\PSoC4/PWM_Defcon_PM.c **** *  restore the values of non retention registers on wakeup from sleep mode.
  86:Generated_Source\PSoC4/PWM_Defcon_PM.c **** *
  87:Generated_Source\PSoC4/PWM_Defcon_PM.c **** *******************************************************************************/
  88:Generated_Source\PSoC4/PWM_Defcon_PM.c **** void PWM_Defcon_RestoreConfig(void) 
  89:Generated_Source\PSoC4/PWM_Defcon_PM.c **** {
  76              		.loc 1 89 0
ARM GAS  C:\Users\ryan\AppData\Local\Temp\ccwvYQ1o.s 			page 4


  77              		.cfi_startproc
  78              		@ args = 0, pretend = 0, frame = 0
  79              		@ frame_needed = 0, uses_anonymous_args = 0
  80 0000 10B5     		push	{r4, lr}
  81              		.cfi_def_cfa_offset 8
  82              		.cfi_offset 4, -8
  83              		.cfi_offset 14, -4
  90:Generated_Source\PSoC4/PWM_Defcon_PM.c ****         #if(!PWM_Defcon_UsingFixedFunction)
  91:Generated_Source\PSoC4/PWM_Defcon_PM.c ****             #if(!PWM_Defcon_PWMModeIsCenterAligned)
  92:Generated_Source\PSoC4/PWM_Defcon_PM.c ****                 PWM_Defcon_WritePeriod(PWM_Defcon_backup.PWMPeriod);
  84              		.loc 1 92 0
  85 0002 074C     		ldr	r4, .L5
  93:Generated_Source\PSoC4/PWM_Defcon_PM.c ****             #endif /* (!PWM_Defcon_PWMModeIsCenterAligned) */
  94:Generated_Source\PSoC4/PWM_Defcon_PM.c **** 
  95:Generated_Source\PSoC4/PWM_Defcon_PM.c ****             PWM_Defcon_WriteCounter(PWM_Defcon_backup.PWMUdb);
  96:Generated_Source\PSoC4/PWM_Defcon_PM.c **** 
  97:Generated_Source\PSoC4/PWM_Defcon_PM.c ****             #if (PWM_Defcon_UseStatus)
  98:Generated_Source\PSoC4/PWM_Defcon_PM.c ****                 PWM_Defcon_STATUS_MASK = PWM_Defcon_backup.InterruptMaskValue;
  99:Generated_Source\PSoC4/PWM_Defcon_PM.c ****             #endif /* (PWM_Defcon_UseStatus) */
 100:Generated_Source\PSoC4/PWM_Defcon_PM.c **** 
 101:Generated_Source\PSoC4/PWM_Defcon_PM.c ****             #if(PWM_Defcon_DeadBandMode == PWM_Defcon__B_PWM__DBM_256_CLOCKS || \
 102:Generated_Source\PSoC4/PWM_Defcon_PM.c ****                 PWM_Defcon_DeadBandMode == PWM_Defcon__B_PWM__DBM_2_4_CLOCKS)
 103:Generated_Source\PSoC4/PWM_Defcon_PM.c ****                 PWM_Defcon_WriteDeadTime(PWM_Defcon_backup.PWMdeadBandValue);
 104:Generated_Source\PSoC4/PWM_Defcon_PM.c ****             #endif /* deadband count is either 2-4 clocks or 256 clocks */
 105:Generated_Source\PSoC4/PWM_Defcon_PM.c **** 
 106:Generated_Source\PSoC4/PWM_Defcon_PM.c ****             #if(PWM_Defcon_KillModeMinTime)
 107:Generated_Source\PSoC4/PWM_Defcon_PM.c ****                 PWM_Defcon_WriteKillTime(PWM_Defcon_backup.PWMKillCounterPeriod);
 108:Generated_Source\PSoC4/PWM_Defcon_PM.c ****             #endif /* (PWM_Defcon_KillModeMinTime) */
 109:Generated_Source\PSoC4/PWM_Defcon_PM.c **** 
 110:Generated_Source\PSoC4/PWM_Defcon_PM.c ****             #if(PWM_Defcon_UseControl)
 111:Generated_Source\PSoC4/PWM_Defcon_PM.c ****                 PWM_Defcon_WriteControlRegister(PWM_Defcon_backup.PWMControlRegister);
 112:Generated_Source\PSoC4/PWM_Defcon_PM.c ****             #endif /* (PWM_Defcon_UseControl) */
 113:Generated_Source\PSoC4/PWM_Defcon_PM.c ****         #endif  /* (!PWM_Defcon_UsingFixedFunction) */
 114:Generated_Source\PSoC4/PWM_Defcon_PM.c ****     }
  86              		.loc 1 114 0
  87              		@ sp needed
  92:Generated_Source\PSoC4/PWM_Defcon_PM.c ****             #endif /* (!PWM_Defcon_PWMModeIsCenterAligned) */
  88              		.loc 1 92 0
  89 0004 A088     		ldrh	r0, [r4, #4]
  90 0006 FFF7FEFF 		bl	PWM_Defcon_WritePeriod
  91              	.LVL3:
  95:Generated_Source\PSoC4/PWM_Defcon_PM.c **** 
  92              		.loc 1 95 0
  93 000a 6088     		ldrh	r0, [r4, #2]
  94 000c FFF7FEFF 		bl	PWM_Defcon_WriteCounter
  95              	.LVL4:
  98:Generated_Source\PSoC4/PWM_Defcon_PM.c ****             #endif /* (PWM_Defcon_UseStatus) */
  96              		.loc 1 98 0
  97 0010 A279     		ldrb	r2, [r4, #6]
  98 0012 044B     		ldr	r3, .L5+4
  99 0014 1A70     		strb	r2, [r3]
 111:Generated_Source\PSoC4/PWM_Defcon_PM.c ****             #endif /* (PWM_Defcon_UseControl) */
 100              		.loc 1 111 0
 101 0016 E079     		ldrb	r0, [r4, #7]
 102 0018 FFF7FEFF 		bl	PWM_Defcon_WriteControlRegister
 103              	.LVL5:
 104              		.loc 1 114 0
ARM GAS  C:\Users\ryan\AppData\Local\Temp\ccwvYQ1o.s 			page 5


 105 001c 10BD     		pop	{r4, pc}
 106              	.L6:
 107 001e C046     		.align	2
 108              	.L5:
 109 0020 00000000 		.word	.LANCHOR0
 110 0024 81000F40 		.word	1074724993
 111              		.cfi_endproc
 112              	.LFE1:
 113              		.size	PWM_Defcon_RestoreConfig, .-PWM_Defcon_RestoreConfig
 114              		.section	.text.PWM_Defcon_Sleep,"ax",%progbits
 115              		.align	1
 116              		.global	PWM_Defcon_Sleep
 117              		.code	16
 118              		.thumb_func
 119              		.type	PWM_Defcon_Sleep, %function
 120              	PWM_Defcon_Sleep:
 121              	.LFB2:
 115:Generated_Source\PSoC4/PWM_Defcon_PM.c **** 
 116:Generated_Source\PSoC4/PWM_Defcon_PM.c **** 
 117:Generated_Source\PSoC4/PWM_Defcon_PM.c **** /*******************************************************************************
 118:Generated_Source\PSoC4/PWM_Defcon_PM.c **** * Function Name: PWM_Defcon_Sleep
 119:Generated_Source\PSoC4/PWM_Defcon_PM.c **** ********************************************************************************
 120:Generated_Source\PSoC4/PWM_Defcon_PM.c **** *
 121:Generated_Source\PSoC4/PWM_Defcon_PM.c **** * Summary:
 122:Generated_Source\PSoC4/PWM_Defcon_PM.c **** *  Disables block's operation and saves the user configuration. Should be called
 123:Generated_Source\PSoC4/PWM_Defcon_PM.c **** *  just prior to entering sleep.
 124:Generated_Source\PSoC4/PWM_Defcon_PM.c **** *
 125:Generated_Source\PSoC4/PWM_Defcon_PM.c **** * Parameters:
 126:Generated_Source\PSoC4/PWM_Defcon_PM.c **** *  None
 127:Generated_Source\PSoC4/PWM_Defcon_PM.c **** *
 128:Generated_Source\PSoC4/PWM_Defcon_PM.c **** * Return:
 129:Generated_Source\PSoC4/PWM_Defcon_PM.c **** *  None
 130:Generated_Source\PSoC4/PWM_Defcon_PM.c **** *
 131:Generated_Source\PSoC4/PWM_Defcon_PM.c **** * Global variables:
 132:Generated_Source\PSoC4/PWM_Defcon_PM.c **** *  PWM_Defcon_backup.PWMEnableState:  Is modified depending on the enable
 133:Generated_Source\PSoC4/PWM_Defcon_PM.c **** *  state of the block before entering sleep mode.
 134:Generated_Source\PSoC4/PWM_Defcon_PM.c **** *
 135:Generated_Source\PSoC4/PWM_Defcon_PM.c **** *******************************************************************************/
 136:Generated_Source\PSoC4/PWM_Defcon_PM.c **** void PWM_Defcon_Sleep(void) 
 137:Generated_Source\PSoC4/PWM_Defcon_PM.c **** {
 122              		.loc 1 137 0
 123              		.cfi_startproc
 124              		@ args = 0, pretend = 0, frame = 0
 125              		@ frame_needed = 0, uses_anonymous_args = 0
 126 0000 10B5     		push	{r4, lr}
 127              		.cfi_def_cfa_offset 8
 128              		.cfi_offset 4, -8
 129              		.cfi_offset 14, -4
 138:Generated_Source\PSoC4/PWM_Defcon_PM.c ****     #if(PWM_Defcon_UseControl)
 139:Generated_Source\PSoC4/PWM_Defcon_PM.c ****         if(PWM_Defcon_CTRL_ENABLE == (PWM_Defcon_CONTROL & PWM_Defcon_CTRL_ENABLE))
 130              		.loc 1 139 0
 131 0002 074B     		ldr	r3, .L12
 132 0004 074A     		ldr	r2, .L12+4
 133 0006 1B78     		ldrb	r3, [r3]
 134 0008 5BB2     		sxtb	r3, r3
 135 000a 002B     		cmp	r3, #0
 136 000c 01DA     		bge	.L8
ARM GAS  C:\Users\ryan\AppData\Local\Temp\ccwvYQ1o.s 			page 6


 140:Generated_Source\PSoC4/PWM_Defcon_PM.c ****         {
 141:Generated_Source\PSoC4/PWM_Defcon_PM.c ****             /*Component is enabled */
 142:Generated_Source\PSoC4/PWM_Defcon_PM.c ****             PWM_Defcon_backup.PWMEnableState = 1u;
 137              		.loc 1 142 0
 138 000e 0123     		movs	r3, #1
 139 0010 00E0     		b	.L10
 140              	.L8:
 143:Generated_Source\PSoC4/PWM_Defcon_PM.c ****         }
 144:Generated_Source\PSoC4/PWM_Defcon_PM.c ****         else
 145:Generated_Source\PSoC4/PWM_Defcon_PM.c ****         {
 146:Generated_Source\PSoC4/PWM_Defcon_PM.c ****             /* Component is disabled */
 147:Generated_Source\PSoC4/PWM_Defcon_PM.c ****             PWM_Defcon_backup.PWMEnableState = 0u;
 141              		.loc 1 147 0
 142 0012 0023     		movs	r3, #0
 143              	.L10:
 144 0014 1370     		strb	r3, [r2]
 148:Generated_Source\PSoC4/PWM_Defcon_PM.c ****         }
 149:Generated_Source\PSoC4/PWM_Defcon_PM.c ****     #endif /* (PWM_Defcon_UseControl) */
 150:Generated_Source\PSoC4/PWM_Defcon_PM.c **** 
 151:Generated_Source\PSoC4/PWM_Defcon_PM.c ****     /* Stop component */
 152:Generated_Source\PSoC4/PWM_Defcon_PM.c ****     PWM_Defcon_Stop();
 153:Generated_Source\PSoC4/PWM_Defcon_PM.c **** 
 154:Generated_Source\PSoC4/PWM_Defcon_PM.c ****     /* Save registers configuration */
 155:Generated_Source\PSoC4/PWM_Defcon_PM.c ****     PWM_Defcon_SaveConfig();
 156:Generated_Source\PSoC4/PWM_Defcon_PM.c **** }
 145              		.loc 1 156 0
 146              		@ sp needed
 152:Generated_Source\PSoC4/PWM_Defcon_PM.c **** 
 147              		.loc 1 152 0
 148 0016 FFF7FEFF 		bl	PWM_Defcon_Stop
 149              	.LVL6:
 155:Generated_Source\PSoC4/PWM_Defcon_PM.c **** }
 150              		.loc 1 155 0
 151 001a FFF7FEFF 		bl	PWM_Defcon_SaveConfig
 152              	.LVL7:
 153              		.loc 1 156 0
 154 001e 10BD     		pop	{r4, pc}
 155              	.L13:
 156              		.align	2
 157              	.L12:
 158 0020 71000F40 		.word	1074724977
 159 0024 00000000 		.word	.LANCHOR0
 160              		.cfi_endproc
 161              	.LFE2:
 162              		.size	PWM_Defcon_Sleep, .-PWM_Defcon_Sleep
 163              		.section	.text.PWM_Defcon_Wakeup,"ax",%progbits
 164              		.align	1
 165              		.global	PWM_Defcon_Wakeup
 166              		.code	16
 167              		.thumb_func
 168              		.type	PWM_Defcon_Wakeup, %function
 169              	PWM_Defcon_Wakeup:
 170              	.LFB3:
 157:Generated_Source\PSoC4/PWM_Defcon_PM.c **** 
 158:Generated_Source\PSoC4/PWM_Defcon_PM.c **** 
 159:Generated_Source\PSoC4/PWM_Defcon_PM.c **** /*******************************************************************************
 160:Generated_Source\PSoC4/PWM_Defcon_PM.c **** * Function Name: PWM_Defcon_Wakeup
ARM GAS  C:\Users\ryan\AppData\Local\Temp\ccwvYQ1o.s 			page 7


 161:Generated_Source\PSoC4/PWM_Defcon_PM.c **** ********************************************************************************
 162:Generated_Source\PSoC4/PWM_Defcon_PM.c **** *
 163:Generated_Source\PSoC4/PWM_Defcon_PM.c **** * Summary:
 164:Generated_Source\PSoC4/PWM_Defcon_PM.c **** *  Restores and enables the user configuration. Should be called just after
 165:Generated_Source\PSoC4/PWM_Defcon_PM.c **** *  awaking from sleep.
 166:Generated_Source\PSoC4/PWM_Defcon_PM.c **** *
 167:Generated_Source\PSoC4/PWM_Defcon_PM.c **** * Parameters:
 168:Generated_Source\PSoC4/PWM_Defcon_PM.c **** *  None
 169:Generated_Source\PSoC4/PWM_Defcon_PM.c **** *
 170:Generated_Source\PSoC4/PWM_Defcon_PM.c **** * Return:
 171:Generated_Source\PSoC4/PWM_Defcon_PM.c **** *  None
 172:Generated_Source\PSoC4/PWM_Defcon_PM.c **** *
 173:Generated_Source\PSoC4/PWM_Defcon_PM.c **** * Global variables:
 174:Generated_Source\PSoC4/PWM_Defcon_PM.c **** *  PWM_Defcon_backup.pwmEnable:  Is used to restore the enable state of
 175:Generated_Source\PSoC4/PWM_Defcon_PM.c **** *  block on wakeup from sleep mode.
 176:Generated_Source\PSoC4/PWM_Defcon_PM.c **** *
 177:Generated_Source\PSoC4/PWM_Defcon_PM.c **** *******************************************************************************/
 178:Generated_Source\PSoC4/PWM_Defcon_PM.c **** void PWM_Defcon_Wakeup(void) 
 179:Generated_Source\PSoC4/PWM_Defcon_PM.c **** {
 171              		.loc 1 179 0
 172              		.cfi_startproc
 173              		@ args = 0, pretend = 0, frame = 0
 174              		@ frame_needed = 0, uses_anonymous_args = 0
 175 0000 10B5     		push	{r4, lr}
 176              		.cfi_def_cfa_offset 8
 177              		.cfi_offset 4, -8
 178              		.cfi_offset 14, -4
 180:Generated_Source\PSoC4/PWM_Defcon_PM.c ****      /* Restore registers values */
 181:Generated_Source\PSoC4/PWM_Defcon_PM.c ****     PWM_Defcon_RestoreConfig();
 179              		.loc 1 181 0
 180 0002 FFF7FEFF 		bl	PWM_Defcon_RestoreConfig
 181              	.LVL8:
 182:Generated_Source\PSoC4/PWM_Defcon_PM.c **** 
 183:Generated_Source\PSoC4/PWM_Defcon_PM.c ****     if(PWM_Defcon_backup.PWMEnableState != 0u)
 182              		.loc 1 183 0
 183 0006 034B     		ldr	r3, .L19
 184 0008 1B78     		ldrb	r3, [r3]
 185 000a 002B     		cmp	r3, #0
 186 000c 01D0     		beq	.L14
 184:Generated_Source\PSoC4/PWM_Defcon_PM.c ****     {
 185:Generated_Source\PSoC4/PWM_Defcon_PM.c ****         /* Enable component's operation */
 186:Generated_Source\PSoC4/PWM_Defcon_PM.c ****         PWM_Defcon_Enable();
 187              		.loc 1 186 0
 188 000e FFF7FEFF 		bl	PWM_Defcon_Enable
 189              	.LVL9:
 190              	.L14:
 187:Generated_Source\PSoC4/PWM_Defcon_PM.c ****     } /* Do nothing if component's block was disabled before */
 188:Generated_Source\PSoC4/PWM_Defcon_PM.c **** 
 189:Generated_Source\PSoC4/PWM_Defcon_PM.c **** }
 191              		.loc 1 189 0
 192              		@ sp needed
 193 0012 10BD     		pop	{r4, pc}
 194              	.L20:
 195              		.align	2
 196              	.L19:
 197 0014 00000000 		.word	.LANCHOR0
 198              		.cfi_endproc
ARM GAS  C:\Users\ryan\AppData\Local\Temp\ccwvYQ1o.s 			page 8


 199              	.LFE3:
 200              		.size	PWM_Defcon_Wakeup, .-PWM_Defcon_Wakeup
 201              		.bss
 202              		.align	1
 203              		.set	.LANCHOR0,. + 0
 204              		.type	PWM_Defcon_backup, %object
 205              		.size	PWM_Defcon_backup, 8
 206              	PWM_Defcon_backup:
 207 0000 00000000 		.space	8
 207      00000000 
 208              		.text
 209              	.Letext0:
 210              		.file 2 "Generated_Source\\PSoC4\\cytypes.h"
 211              		.file 3 "Generated_Source\\PSoC4\\PWM_Defcon.h"