ARM GAS  C:\Users\ryan\AppData\Local\Temp\ccy39URV.s 			page 1


   1              		.syntax unified
   2              		.cpu cortex-m0
   3              		.fpu softvfp
   4              		.eabi_attribute 20, 1
   5              		.eabi_attribute 21, 1
   6              		.eabi_attribute 23, 3
   7              		.eabi_attribute 24, 1
   8              		.eabi_attribute 25, 1
   9              		.eabi_attribute 26, 1
  10              		.eabi_attribute 30, 4
  11              		.eabi_attribute 34, 0
  12              		.eabi_attribute 18, 4
  13              		.thumb
  14              		.syntax unified
  15              		.file	"togglelib.c"
  16              		.text
  17              	.Ltext0:
  18              		.cfi_sections	.debug_frame
  19              		.global	__aeabi_idivmod
  20              		.section	.text.SWL_Handler,"ax",%progbits
  21              		.align	1
  22              		.global	SWL_Handler
  23              		.code	16
  24              		.thumb_func
  25              		.type	SWL_Handler, %function
  26              	SWL_Handler:
  27              	.LFB33:
  28              		.file 1 "togglelib.c"
   1:togglelib.c   **** /* ========================================
   2:togglelib.c   ****  *
   3:togglelib.c   ****  * Copyright Nullify, 2016
   4:togglelib.c   ****  * All Rights Reserved
   5:togglelib.c   ****  * UNPUBLISHED, LICENSED SOFTWARE.
   6:togglelib.c   ****  *
   7:togglelib.c   ****  * CONFIDENTIAL AND PROPRIETARY INFORMATION
   8:togglelib.c   ****  * WHICH IS THE PROPERTY OF NULLIY.
   9:togglelib.c   ****  *
  10:togglelib.c   ****  * ========================================
  11:togglelib.c   **** */
  12:togglelib.c   **** #include <project.h>
  13:togglelib.c   **** #include <stdio.h>
  14:togglelib.c   **** #include <time.h>
  15:togglelib.c   **** #include <stdlib.h>
  16:togglelib.c   **** #include "lightlib.h"
  17:togglelib.c   **** #include "togglelib.h"
  18:togglelib.c   **** #include "state.h"
  19:togglelib.c   **** 
  20:togglelib.c   **** /* Signal handler for left toggle press */
  21:togglelib.c   **** CY_ISR( SWL_Handler ) { 
  29              		.loc 1 21 0
  30              		.cfi_startproc
  31              		@ args = 0, pretend = 0, frame = 0
  32              		@ frame_needed = 0, uses_anonymous_args = 0
  33 0000 10B5     		push	{r4, lr}
  34              		.cfi_def_cfa_offset 8
  35              		.cfi_offset 4, -8
  36              		.cfi_offset 14, -4
ARM GAS  C:\Users\ryan\AppData\Local\Temp\ccy39URV.s 			page 2


  22:togglelib.c   ****     uint8 current_color; 
  23:togglelib.c   ****     uint32 rand_color; 
  24:togglelib.c   ****     
  25:togglelib.c   ****     /* Make sure Defcon party time PWM is off */
  26:togglelib.c   ****     PWM_Defcon_Stop();
  37              		.loc 1 26 0
  38 0002 FFF7FEFF 		bl	PWM_Defcon_Stop
  39              	.LVL0:
  27:togglelib.c   ****     
  28:togglelib.c   ****    /* Get the current color of the leds and pick a new one */
  29:togglelib.c   ****    current_color = get_color(LEFT_LED);
  40              		.loc 1 29 0
  41 0006 0120     		movs	r0, #1
  42 0008 FFF7FEFF 		bl	get_color
  43              	.LVL1:
  44 000c 0400     		movs	r4, r0
  45              	.LVL2:
  46              	.L3:
  30:togglelib.c   ****    rand_color = (rand() % 7) + 1;
  31:togglelib.c   ****     
  32:togglelib.c   ****     while (current_color == rand_color){
  33:togglelib.c   ****         rand_color = (rand() % 7) + 1;
  47              		.loc 1 33 0
  48 000e FFF7FEFF 		bl	rand
  49              	.LVL3:
  50 0012 0721     		movs	r1, #7
  51 0014 FFF7FEFF 		bl	__aeabi_idivmod
  52              	.LVL4:
  53 0018 0131     		adds	r1, r1, #1
  54              	.LVL5:
  32:togglelib.c   ****         rand_color = (rand() % 7) + 1;
  55              		.loc 1 32 0
  56 001a A142     		cmp	r1, r4
  57 001c F7D0     		beq	.L3
  34:togglelib.c   ****     }
  35:togglelib.c   **** 
  36:togglelib.c   ****     init_led(rand_color);
  58              		.loc 1 36 0
  59 001e C8B2     		uxtb	r0, r1
  60 0020 FFF7FEFF 		bl	init_led
  61              	.LVL6:
  37:togglelib.c   ****     
  38:togglelib.c   ****     /* Badge State is MORSE */
  39:togglelib.c   ****     badge_state = MORSE;
  62              		.loc 1 39 0
  63 0024 0122     		movs	r2, #1
  64 0026 024B     		ldr	r3, .L5
  40:togglelib.c   ****     
  41:togglelib.c   ****     /* Clear interrupt */
  42:togglelib.c   ****     SWL_ClearInterrupt();
  43:togglelib.c   **** }
  65              		.loc 1 43 0
  66              		@ sp needed
  39:togglelib.c   ****     
  67              		.loc 1 39 0
  68 0028 1A70     		strb	r2, [r3]
  42:togglelib.c   **** }
ARM GAS  C:\Users\ryan\AppData\Local\Temp\ccy39URV.s 			page 3


  69              		.loc 1 42 0
  70 002a FFF7FEFF 		bl	SWL_ClearInterrupt
  71              	.LVL7:
  72              	.LVL8:
  73              		.loc 1 43 0
  74 002e 10BD     		pop	{r4, pc}
  75              	.L6:
  76              		.align	2
  77              	.L5:
  78 0030 00000000 		.word	badge_state
  79              		.cfi_endproc
  80              	.LFE33:
  81              		.size	SWL_Handler, .-SWL_Handler
  82              		.section	.text.SWR_Handler,"ax",%progbits
  83              		.align	1
  84              		.global	SWR_Handler
  85              		.code	16
  86              		.thumb_func
  87              		.type	SWR_Handler, %function
  88              	SWR_Handler:
  89              	.LFB34:
  44:togglelib.c   **** 
  45:togglelib.c   **** /* Signal handler for right toggle press */
  46:togglelib.c   **** CY_ISR( SWR_Handler ) {
  90              		.loc 1 46 0
  91              		.cfi_startproc
  92              		@ args = 0, pretend = 0, frame = 0
  93              		@ frame_needed = 0, uses_anonymous_args = 0
  94 0000 10B5     		push	{r4, lr}
  95              		.cfi_def_cfa_offset 8
  96              		.cfi_offset 4, -8
  97              		.cfi_offset 14, -4
  47:togglelib.c   ****     uint8 current_color; 
  48:togglelib.c   ****     uint32 rand_color; 
  49:togglelib.c   ****     
  50:togglelib.c   ****     /* Make sure Defcon party time PWM is off */
  51:togglelib.c   ****     PWM_Defcon_Stop();
  98              		.loc 1 51 0
  99 0002 FFF7FEFF 		bl	PWM_Defcon_Stop
 100              	.LVL9:
  52:togglelib.c   ****     
  53:togglelib.c   ****    /* Get the current color of the leds and pick a new one */
  54:togglelib.c   ****    current_color = get_color(LEFT_LED);
 101              		.loc 1 54 0
 102 0006 0120     		movs	r0, #1
 103 0008 FFF7FEFF 		bl	get_color
 104              	.LVL10:
 105 000c 0400     		movs	r4, r0
 106              	.LVL11:
 107              	.L9:
  55:togglelib.c   ****    rand_color = (rand() % 7) + 1;
  56:togglelib.c   ****     
  57:togglelib.c   ****     while (current_color == rand_color){
  58:togglelib.c   ****         rand_color = (rand() % 7) + 1;
 108              		.loc 1 58 0
 109 000e FFF7FEFF 		bl	rand
 110              	.LVL12:
ARM GAS  C:\Users\ryan\AppData\Local\Temp\ccy39URV.s 			page 4


 111 0012 0721     		movs	r1, #7
 112 0014 FFF7FEFF 		bl	__aeabi_idivmod
 113              	.LVL13:
 114 0018 0131     		adds	r1, r1, #1
 115              	.LVL14:
  57:togglelib.c   ****         rand_color = (rand() % 7) + 1;
 116              		.loc 1 57 0
 117 001a A142     		cmp	r1, r4
 118 001c F7D0     		beq	.L9
  59:togglelib.c   ****     }
  60:togglelib.c   **** 
  61:togglelib.c   ****     init_led(rand_color);
 119              		.loc 1 61 0
 120 001e C8B2     		uxtb	r0, r1
 121 0020 FFF7FEFF 		bl	init_led
 122              	.LVL15:
  62:togglelib.c   ****     
  63:togglelib.c   ****     /* Badge State is BINARY_MESSAGE */
  64:togglelib.c   ****     badge_state = BINARY;
 123              		.loc 1 64 0
 124 0024 0222     		movs	r2, #2
 125 0026 024B     		ldr	r3, .L10
  65:togglelib.c   ****     
  66:togglelib.c   ****    /* Clear interrupt */
  67:togglelib.c   ****     SWR_ClearInterrupt();
  68:togglelib.c   **** }
 126              		.loc 1 68 0
 127              		@ sp needed
  64:togglelib.c   ****     
 128              		.loc 1 64 0
 129 0028 1A70     		strb	r2, [r3]
  67:togglelib.c   **** }
 130              		.loc 1 67 0
 131 002a FFF7FEFF 		bl	SWR_ClearInterrupt
 132              	.LVL16:
 133              	.LVL17:
 134              		.loc 1 68 0
 135 002e 10BD     		pop	{r4, pc}
 136              	.L11:
 137              		.align	2
 138              	.L10:
 139 0030 00000000 		.word	badge_state
 140              		.cfi_endproc
 141              	.LFE34:
 142              		.size	SWR_Handler, .-SWR_Handler
 143              		.section	.text.SWB_Handler,"ax",%progbits
 144              		.align	1
 145              		.global	SWB_Handler
 146              		.code	16
 147              		.thumb_func
 148              		.type	SWB_Handler, %function
 149              	SWB_Handler:
 150              	.LFB35:
  69:togglelib.c   **** 
  70:togglelib.c   **** /* Signal handler for on board toggle press */
  71:togglelib.c   **** CY_ISR( SWB_Handler ) {
 151              		.loc 1 71 0
ARM GAS  C:\Users\ryan\AppData\Local\Temp\ccy39URV.s 			page 5


 152              		.cfi_startproc
 153              		@ args = 0, pretend = 0, frame = 0
 154              		@ frame_needed = 0, uses_anonymous_args = 0
  72:togglelib.c   ****     badge_state = DEFCONPARTY;
 155              		.loc 1 72 0
 156 0000 0322     		movs	r2, #3
  71:togglelib.c   ****     badge_state = DEFCONPARTY;
 157              		.loc 1 71 0
 158 0002 10B5     		push	{r4, lr}
 159              		.cfi_def_cfa_offset 8
 160              		.cfi_offset 4, -8
 161              		.cfi_offset 14, -4
 162              		.loc 1 72 0
 163 0004 034B     		ldr	r3, .L13
  73:togglelib.c   ****     
  74:togglelib.c   ****     /* Start the Defcon Party Time PWM */
  75:togglelib.c   ****     PWM_Defcon_Start();
  76:togglelib.c   ****         
  77:togglelib.c   ****     /* Clear interrupt */
  78:togglelib.c   ****     SWB_ClearInterrupt();
  79:togglelib.c   **** }
 164              		.loc 1 79 0
 165              		@ sp needed
  72:togglelib.c   ****     
 166              		.loc 1 72 0
 167 0006 1A70     		strb	r2, [r3]
  75:togglelib.c   ****         
 168              		.loc 1 75 0
 169 0008 FFF7FEFF 		bl	PWM_Defcon_Start
 170              	.LVL18:
  78:togglelib.c   **** }
 171              		.loc 1 78 0
 172 000c FFF7FEFF 		bl	SWB_ClearInterrupt
 173              	.LVL19:
 174              		.loc 1 79 0
 175 0010 10BD     		pop	{r4, pc}
 176              	.L14:
 177 0012 C046     		.align	2
 178              	.L13:
 179 0014 00000000 		.word	badge_state
 180              		.cfi_endproc
 181              	.LFE35:
 182              		.size	SWB_Handler, .-SWB_Handler
 183              		.section	.text.DEFCON_Handler,"ax",%progbits
 184              		.align	1
 185              		.global	DEFCON_Handler
 186              		.code	16
 187              		.thumb_func
 188              		.type	DEFCON_Handler, %function
 189              	DEFCON_Handler:
 190              	.LFB36:
  80:togglelib.c   **** 
  81:togglelib.c   **** /* Signal handler for organizer lights */
  82:togglelib.c   **** CY_ISR( DEFCON_Handler ) {
 191              		.loc 1 82 0
 192              		.cfi_startproc
 193              		@ args = 0, pretend = 0, frame = 0
ARM GAS  C:\Users\ryan\AppData\Local\Temp\ccy39URV.s 			page 6


 194              		@ frame_needed = 0, uses_anonymous_args = 0
 195 0000 F8B5     		push	{r3, r4, r5, r6, r7, lr}
 196              		.cfi_def_cfa_offset 24
 197              		.cfi_offset 3, -24
 198              		.cfi_offset 4, -20
 199              		.cfi_offset 5, -16
 200              		.cfi_offset 6, -12
 201              		.cfi_offset 7, -8
 202              		.cfi_offset 14, -4
  83:togglelib.c   ****     /* Generate random eye colors */
  84:togglelib.c   ****     uint8 current_color_left = get_color(LEFT_LED);
 203              		.loc 1 84 0
 204 0002 0120     		movs	r0, #1
 205 0004 FFF7FEFF 		bl	get_color
 206              	.LVL20:
 207 0008 0700     		movs	r7, r0
 208              	.LVL21:
  85:togglelib.c   ****     uint8 current_color_right = get_color(RIGHT_LED);
 209              		.loc 1 85 0
 210 000a 0220     		movs	r0, #2
 211              	.LVL22:
 212 000c FFF7FEFF 		bl	get_color
 213              	.LVL23:
 214 0010 0600     		movs	r6, r0
 215              	.LVL24:
  86:togglelib.c   ****     uint32 rand_num_left = (rand() % 7) + 1;
 216              		.loc 1 86 0
 217 0012 FFF7FEFF 		bl	rand
 218              	.LVL25:
 219 0016 0721     		movs	r1, #7
 220 0018 FFF7FEFF 		bl	__aeabi_idivmod
 221              	.LVL26:
 222 001c 4D1C     		adds	r5, r1, #1
 223              	.LVL27:
  87:togglelib.c   ****     uint32 rand_num_right = (rand() % 7) + 1;
 224              		.loc 1 87 0
 225 001e FFF7FEFF 		bl	rand
 226              	.LVL28:
 227 0022 0721     		movs	r1, #7
 228 0024 FFF7FEFF 		bl	__aeabi_idivmod
 229              	.LVL29:
 230 0028 4C1C     		adds	r4, r1, #1
 231              	.LVL30:
 232              	.L16:
  88:togglelib.c   ****     
  89:togglelib.c   ****     while (current_color_left == rand_num_left){
 233              		.loc 1 89 0
 234 002a BD42     		cmp	r5, r7
 235 002c 06D1     		bne	.L18
  90:togglelib.c   ****         rand_num_left = (rand() % 7) + 1;
 236              		.loc 1 90 0
 237 002e FFF7FEFF 		bl	rand
 238              	.LVL31:
 239 0032 0721     		movs	r1, #7
 240 0034 FFF7FEFF 		bl	__aeabi_idivmod
 241              	.LVL32:
 242 0038 4D1C     		adds	r5, r1, #1
ARM GAS  C:\Users\ryan\AppData\Local\Temp\ccy39URV.s 			page 7


 243              	.LVL33:
 244 003a F6E7     		b	.L16
 245              	.L18:
  91:togglelib.c   ****     }
  92:togglelib.c   ****     
  93:togglelib.c   ****    while (current_color_right == rand_num_right){
 246              		.loc 1 93 0
 247 003c B442     		cmp	r4, r6
 248 003e 06D1     		bne	.L20
  94:togglelib.c   ****         rand_num_right = (rand() % 7) + 1;
 249              		.loc 1 94 0
 250 0040 FFF7FEFF 		bl	rand
 251              	.LVL34:
 252 0044 0721     		movs	r1, #7
 253 0046 FFF7FEFF 		bl	__aeabi_idivmod
 254              	.LVL35:
 255 004a 4C1C     		adds	r4, r1, #1
 256              	.LVL36:
 257 004c F6E7     		b	.L18
 258              	.L20:
  95:togglelib.c   ****     }
  96:togglelib.c   ****     
  97:togglelib.c   ****     set_color(LEFT_LED, rand_num_left);
 259              		.loc 1 97 0
 260 004e E9B2     		uxtb	r1, r5
 261 0050 0120     		movs	r0, #1
 262 0052 FFF7FEFF 		bl	set_color
 263              	.LVL37:
  98:togglelib.c   ****     set_color(RIGHT_LED, rand_num_right);
 264              		.loc 1 98 0
 265 0056 E1B2     		uxtb	r1, r4
 266 0058 0220     		movs	r0, #2
 267 005a FFF7FEFF 		bl	set_color
 268              	.LVL38:
  99:togglelib.c   ****     turn_off(LEFT_RIGHT_LED);
 269              		.loc 1 99 0
 270 005e 0320     		movs	r0, #3
 271 0060 FFF7FEFF 		bl	turn_off
 272              	.LVL39:
 100:togglelib.c   ****     turn_on(LEFT_RIGHT_LED);
 273              		.loc 1 100 0
 274 0064 0320     		movs	r0, #3
 275 0066 FFF7FEFF 		bl	turn_on
 276              	.LVL40:
 101:togglelib.c   ****     
 102:togglelib.c   ****     DEFCON_Int_ClearPending();
 103:togglelib.c   ****     PWM_Defcon_ReadStatusRegister();
 104:togglelib.c   **** }
 277              		.loc 1 104 0
 278              		@ sp needed
 102:togglelib.c   ****     PWM_Defcon_ReadStatusRegister();
 279              		.loc 1 102 0
 280 006a FFF7FEFF 		bl	DEFCON_Int_ClearPending
 281              	.LVL41:
 103:togglelib.c   **** }
 282              		.loc 1 103 0
 283 006e FFF7FEFF 		bl	PWM_Defcon_ReadStatusRegister
ARM GAS  C:\Users\ryan\AppData\Local\Temp\ccy39URV.s 			page 8


 284              	.LVL42:
 285              	.LVL43:
 286              	.LVL44:
 287              	.LVL45:
 288              	.LVL46:
 289              		.loc 1 104 0
 290 0072 F8BD     		pop	{r3, r4, r5, r6, r7, pc}
 291              		.cfi_endproc
 292              	.LFE36:
 293              		.size	DEFCON_Handler, .-DEFCON_Handler
 294              		.section	.text.enable_toggle_interrupts,"ax",%progbits
 295              		.align	1
 296              		.global	enable_toggle_interrupts
 297              		.code	16
 298              		.thumb_func
 299              		.type	enable_toggle_interrupts, %function
 300              	enable_toggle_interrupts:
 301              	.LFB37:
 105:togglelib.c   **** 
 106:togglelib.c   **** void enable_toggle_interrupts() {
 302              		.loc 1 106 0
 303              		.cfi_startproc
 304              		@ args = 0, pretend = 0, frame = 0
 305              		@ frame_needed = 0, uses_anonymous_args = 0
 306 0000 10B5     		push	{r4, lr}
 307              		.cfi_def_cfa_offset 8
 308              		.cfi_offset 4, -8
 309              		.cfi_offset 14, -4
 107:togglelib.c   ****     /* Setup toggle interrupts  */
 108:togglelib.c   ****     SWB_Int_StartEx( SWB_Handler );
 310              		.loc 1 108 0
 311 0002 0948     		ldr	r0, .L22
 312 0004 FFF7FEFF 		bl	SWB_Int_StartEx
 313              	.LVL47:
 109:togglelib.c   ****     SWL_Int_StartEx( SWL_Handler );
 314              		.loc 1 109 0
 315 0008 0848     		ldr	r0, .L22+4
 316 000a FFF7FEFF 		bl	SWL_Int_StartEx
 317              	.LVL48:
 110:togglelib.c   ****     SWR_Int_StartEx( SWR_Handler );
 318              		.loc 1 110 0
 319 000e 0848     		ldr	r0, .L22+8
 320 0010 FFF7FEFF 		bl	SWR_Int_StartEx
 321              	.LVL49:
 111:togglelib.c   ****     DEFCON_Int_StartEx( DEFCON_Handler );
 322              		.loc 1 111 0
 323 0014 0748     		ldr	r0, .L22+12
 324 0016 FFF7FEFF 		bl	DEFCON_Int_StartEx
 325              	.LVL50:
 112:togglelib.c   ****     /* Seed random */
 113:togglelib.c   ****     srand(time(NULL));
 326              		.loc 1 113 0
 327 001a 0020     		movs	r0, #0
 328 001c FFF7FEFF 		bl	time
 329              	.LVL51:
 330 0020 FFF7FEFF 		bl	srand
 331              	.LVL52:
ARM GAS  C:\Users\ryan\AppData\Local\Temp\ccy39URV.s 			page 9


 114:togglelib.c   **** }...
 332              		.loc 1 114 0
 333              		@ sp needed
 334 0024 10BD     		pop	{r4, pc}
 335              	.L23:
 336 0026 C046     		.align	2
 337              	.L22:
 338 0028 00000000 		.word	SWB_Handler
 339 002c 00000000 		.word	SWL_Handler
 340 0030 00000000 		.word	SWR_Handler
 341 0034 00000000 		.word	DEFCON_Handler
 342              		.cfi_endproc
 343              	.LFE37:
 344              		.size	enable_toggle_interrupts, .-enable_toggle_interrupts
 345              		.text
 346              	.Letext0:
 347              		.file 2 "Generated_Source\\PSoC4/cytypes.h"
 348              		.file 3 "Generated_Source\\PSoC4/PWM_Defcon.h"
 349              		.file 4 "lightlib.h"
 350              		.file 5 "c:\\program files (x86)\\cypress\\psoc creator\\4.1\\psoc creator\\import\\gnu\\arm\\5.4.
 351              		.file 6 "Generated_Source\\PSoC4/SWL.h"
 352              		.file 7 "Generated_Source\\PSoC4/SWR.h"
 353              		.file 8 "Generated_Source\\PSoC4/SWB.h"
 354              		.file 9 "Generated_Source\\PSoC4/DEFCON_Int.h"
 355              		.file 10 "Generated_Source\\PSoC4/SWB_Int.h"
 356              		.file 11 "Generated_Source\\PSoC4/SWL_Int.h"
 357              		.file 12 "Generated_Source\\PSoC4/SWR_Int.h"
 358              		.file 13 "c:\\program files (x86)\\cypress\\psoc creator\\4.1\\psoc creator\\import\\gnu\\arm\\5.4
 359              		.file 14 "state.h"