ARM GAS  C:\Users\ryan\AppData\Local\Temp\ccgit9Xl.s 			page 1


   1              		.syntax unified
   2              		.cpu cortex-m0
   3              		.fpu softvfp
   4              		.eabi_attribute 20, 1
   5              		.eabi_attribute 21, 1
   6              		.eabi_attribute 23, 3
   7              		.eabi_attribute 24, 1
   8              		.eabi_attribute 25, 1
   9              		.eabi_attribute 26, 1
  10              		.eabi_attribute 30, 6
  11              		.eabi_attribute 34, 0
  12              		.eabi_attribute 18, 4
  13              		.thumb
  14              		.syntax unified
  15              		.file	"substitution.c"
  16              		.text
  17              	.Ltext0:
  18              		.cfi_sections	.debug_frame
  19              		.section	.text.blink_char,"ax",%progbits
  20              		.align	2
  21              		.global	blink_char
  22              		.code	16
  23              		.thumb_func
  24              		.type	blink_char, %function
  25              	blink_char:
  26              	.LFB32:
  27              		.file 1 "substitution.c"
   1:substitution.c **** /* ========================================
   2:substitution.c ****  *
   3:substitution.c ****  * Copyright Nullify, 2016
   4:substitution.c ****  * All Rights Reserved
   5:substitution.c ****  * UNPUBLISHED, LICENSED SOFTWARE.
   6:substitution.c ****  *
   7:substitution.c ****  * CONFIDENTIAL AND PROPRIETARY INFORMATION
   8:substitution.c ****  * WHICH IS THE PROPERTY OF NULLIY.
   9:substitution.c ****  *
  10:substitution.c ****  * ========================================
  11:substitution.c **** */
  12:substitution.c **** #include <project.h>
  13:substitution.c **** #include <string.h>
  14:substitution.c **** #include "lightlib.h"
  15:substitution.c **** #include "substitution.h"
  16:substitution.c **** #include "state.h"
  17:substitution.c **** 
  18:substitution.c **** 
  19:substitution.c **** void blink_char(void) {
  28              		.loc 1 19 0
  29              		.cfi_startproc
  30              		@ args = 0, pretend = 0, frame = 0
  31              		@ frame_needed = 1, uses_anonymous_args = 0
  32 0000 80B5     		push	{r7, lr}
  33              		.cfi_def_cfa_offset 8
  34              		.cfi_offset 7, -8
  35              		.cfi_offset 14, -4
  36 0002 00AF     		add	r7, sp, #0
  37              		.cfi_def_cfa_register 7
  20:substitution.c ****     /* Verify state */
ARM GAS  C:\Users\ryan\AppData\Local\Temp\ccgit9Xl.s 			page 2


  21:substitution.c ****     if(!verify_state(SUBSTITUTION)) {
  38              		.loc 1 21 0
  39 0004 0320     		movs	r0, #3
  40 0006 FFF7FEFF 		bl	verify_state
  41 000a 031E     		subs	r3, r0, #0
  42 000c 10D0     		beq	.L4
  22:substitution.c ****         return;
  23:substitution.c ****     }
  24:substitution.c ****     turn_on(LEFT_LED);
  43              		.loc 1 24 0
  44 000e 0120     		movs	r0, #1
  45 0010 FFF7FEFF 		bl	turn_on
  25:substitution.c ****     CyDelay(CHAR_ON_TIME);
  46              		.loc 1 25 0
  47 0014 FA23     		movs	r3, #250
  48 0016 5B00     		lsls	r3, r3, #1
  49 0018 1800     		movs	r0, r3
  50 001a FFF7FEFF 		bl	CyDelay
  26:substitution.c ****     turn_off(LEFT_LED);
  51              		.loc 1 26 0
  52 001e 0120     		movs	r0, #1
  53 0020 FFF7FEFF 		bl	turn_off
  27:substitution.c ****     CyDelay(CHAR_OFF_TIME);
  54              		.loc 1 27 0
  55 0024 FA23     		movs	r3, #250
  56 0026 5B00     		lsls	r3, r3, #1
  57 0028 1800     		movs	r0, r3
  58 002a FFF7FEFF 		bl	CyDelay
  59 002e 00E0     		b	.L1
  60              	.L4:
  22:substitution.c ****     }
  61              		.loc 1 22 0
  62 0030 C046     		nop
  63              	.L1:
  28:substitution.c **** }
  64              		.loc 1 28 0
  65 0032 BD46     		mov	sp, r7
  66              		@ sp needed
  67 0034 80BD     		pop	{r7, pc}
  68              		.cfi_endproc
  69              	.LFE32:
  70              		.size	blink_char, .-blink_char
  71 0036 C046     		.section	.text.new_char,"ax",%progbits
  72              		.align	2
  73              		.global	new_char
  74              		.code	16
  75              		.thumb_func
  76              		.type	new_char, %function
  77              	new_char:
  78              	.LFB33:
  29:substitution.c **** 
  30:substitution.c **** void new_char(void) {
  79              		.loc 1 30 0
  80              		.cfi_startproc
  81              		@ args = 0, pretend = 0, frame = 0
  82              		@ frame_needed = 1, uses_anonymous_args = 0
  83 0000 80B5     		push	{r7, lr}
ARM GAS  C:\Users\ryan\AppData\Local\Temp\ccgit9Xl.s 			page 3


  84              		.cfi_def_cfa_offset 8
  85              		.cfi_offset 7, -8
  86              		.cfi_offset 14, -4
  87 0002 00AF     		add	r7, sp, #0
  88              		.cfi_def_cfa_register 7
  31:substitution.c ****     /* Verify state */
  32:substitution.c ****     if(!verify_state(SUBSTITUTION)) {
  89              		.loc 1 32 0
  90 0004 0320     		movs	r0, #3
  91 0006 FFF7FEFF 		bl	verify_state
  92 000a 031E     		subs	r3, r0, #0
  93 000c 10D0     		beq	.L8
  33:substitution.c ****         return;
  34:substitution.c ****     }
  35:substitution.c ****     turn_on(RIGHT_LED);
  94              		.loc 1 35 0
  95 000e 0220     		movs	r0, #2
  96 0010 FFF7FEFF 		bl	turn_on
  36:substitution.c ****     CyDelay(CHAR_ON_TIME);
  97              		.loc 1 36 0
  98 0014 FA23     		movs	r3, #250
  99 0016 5B00     		lsls	r3, r3, #1
 100 0018 1800     		movs	r0, r3
 101 001a FFF7FEFF 		bl	CyDelay
  37:substitution.c ****     turn_off(RIGHT_LED);
 102              		.loc 1 37 0
 103 001e 0220     		movs	r0, #2
 104 0020 FFF7FEFF 		bl	turn_off
  38:substitution.c ****     CyDelay(CHAR_OFF_TIME);
 105              		.loc 1 38 0
 106 0024 FA23     		movs	r3, #250
 107 0026 5B00     		lsls	r3, r3, #1
 108 0028 1800     		movs	r0, r3
 109 002a FFF7FEFF 		bl	CyDelay
 110 002e 00E0     		b	.L5
 111              	.L8:
  33:substitution.c ****     }
 112              		.loc 1 33 0
 113 0030 C046     		nop
 114              	.L5:
  39:substitution.c **** }
 115              		.loc 1 39 0
 116 0032 BD46     		mov	sp, r7
 117              		@ sp needed
 118 0034 80BD     		pop	{r7, pc}
 119              		.cfi_endproc
 120              	.LFE33:
 121              		.size	new_char, .-new_char
 122 0036 C046     		.section	.text.new_message_substitution,"ax",%progbits
 123              		.align	2
 124              		.global	new_message_substitution
 125              		.code	16
 126              		.thumb_func
 127              		.type	new_message_substitution, %function
 128              	new_message_substitution:
 129              	.LFB34:
  40:substitution.c **** 
ARM GAS  C:\Users\ryan\AppData\Local\Temp\ccgit9Xl.s 			page 4


  41:substitution.c **** void new_message_substitution(void) {
 130              		.loc 1 41 0
 131              		.cfi_startproc
 132              		@ args = 0, pretend = 0, frame = 8
 133              		@ frame_needed = 1, uses_anonymous_args = 0
 134 0000 90B5     		push	{r4, r7, lr}
 135              		.cfi_def_cfa_offset 12
 136              		.cfi_offset 4, -12
 137              		.cfi_offset 7, -8
 138              		.cfi_offset 14, -4
 139 0002 83B0     		sub	sp, sp, #12
 140              		.cfi_def_cfa_offset 24
 141 0004 00AF     		add	r7, sp, #0
 142              		.cfi_def_cfa_register 7
  42:substitution.c ****     unsigned int i;
  43:substitution.c ****     uint8 original_color;
  44:substitution.c ****     original_color = get_color(LEFT_LED);
 143              		.loc 1 44 0
 144 0006 FC1C     		adds	r4, r7, #3
 145 0008 0120     		movs	r0, #1
 146 000a FFF7FEFF 		bl	get_color
 147 000e 0300     		movs	r3, r0
 148 0010 2370     		strb	r3, [r4]
  45:substitution.c ****     set_color(LEFT_RIGHT_LED, WHITE);
 149              		.loc 1 45 0
 150 0012 0721     		movs	r1, #7
 151 0014 0320     		movs	r0, #3
 152 0016 FFF7FEFF 		bl	set_color
  46:substitution.c ****     for (i=0; i<NEW_MESSAGE_NUMBER; i++) {
 153              		.loc 1 46 0
 154 001a 0023     		movs	r3, #0
 155 001c 7B60     		str	r3, [r7, #4]
 156 001e 13E0     		b	.L10
 157              	.L13:
  47:substitution.c ****         /* Verify state */
  48:substitution.c ****         if(!verify_state(SUBSTITUTION)) {
 158              		.loc 1 48 0
 159 0020 0320     		movs	r0, #3
 160 0022 FFF7FEFF 		bl	verify_state
 161 0026 031E     		subs	r3, r0, #0
 162 0028 18D0     		beq	.L14
  49:substitution.c ****             return;
  50:substitution.c ****         }
  51:substitution.c ****        turn_on(LEFT_RIGHT_LED);
 163              		.loc 1 51 0 discriminator 2
 164 002a 0320     		movs	r0, #3
 165 002c FFF7FEFF 		bl	turn_on
  52:substitution.c ****        CyDelay(RESET_DELAY);
 166              		.loc 1 52 0 discriminator 2
 167 0030 FA20     		movs	r0, #250
 168 0032 FFF7FEFF 		bl	CyDelay
  53:substitution.c ****        turn_off(LEFT_RIGHT_LED);
 169              		.loc 1 53 0 discriminator 2
 170 0036 0320     		movs	r0, #3
 171 0038 FFF7FEFF 		bl	turn_off
  54:substitution.c ****        CyDelay(RESET_DELAY);
 172              		.loc 1 54 0 discriminator 2
ARM GAS  C:\Users\ryan\AppData\Local\Temp\ccgit9Xl.s 			page 5


 173 003c FA20     		movs	r0, #250
 174 003e FFF7FEFF 		bl	CyDelay
  46:substitution.c ****         /* Verify state */
 175              		.loc 1 46 0 discriminator 2
 176 0042 7B68     		ldr	r3, [r7, #4]
 177 0044 0133     		adds	r3, r3, #1
 178 0046 7B60     		str	r3, [r7, #4]
 179              	.L10:
  46:substitution.c ****         /* Verify state */
 180              		.loc 1 46 0 is_stmt 0 discriminator 1
 181 0048 7B68     		ldr	r3, [r7, #4]
 182 004a 042B     		cmp	r3, #4
 183 004c E8D9     		bls	.L13
  55:substitution.c ****     }
  56:substitution.c ****     set_color(LEFT_RIGHT_LED, original_color);
 184              		.loc 1 56 0 is_stmt 1
 185 004e FB1C     		adds	r3, r7, #3
 186 0050 1B78     		ldrb	r3, [r3]
 187 0052 1900     		movs	r1, r3
 188 0054 0320     		movs	r0, #3
 189 0056 FFF7FEFF 		bl	set_color
 190 005a 00E0     		b	.L9
 191              	.L14:
  49:substitution.c ****         }
 192              		.loc 1 49 0
 193 005c C046     		nop
 194              	.L9:
  57:substitution.c **** }
 195              		.loc 1 57 0
 196 005e BD46     		mov	sp, r7
 197 0060 03B0     		add	sp, sp, #12
 198              		@ sp needed
 199 0062 90BD     		pop	{r4, r7, pc}
 200              		.cfi_endproc
 201              	.LFE34:
 202              		.size	new_message_substitution, .-new_message_substitution
 203              		.section	.text.substitution_encode,"ax",%progbits
 204              		.align	2
 205              		.global	substitution_encode
 206              		.code	16
 207              		.thumb_func
 208              		.type	substitution_encode, %function
 209              	substitution_encode:
 210              	.LFB35:
  58:substitution.c **** 
  59:substitution.c **** 
  60:substitution.c **** void substitution_encode(char c){
 211              		.loc 1 60 0
 212              		.cfi_startproc
 213              		@ args = 0, pretend = 0, frame = 16
 214              		@ frame_needed = 1, uses_anonymous_args = 0
 215 0000 80B5     		push	{r7, lr}
 216              		.cfi_def_cfa_offset 8
 217              		.cfi_offset 7, -8
 218              		.cfi_offset 14, -4
 219 0002 84B0     		sub	sp, sp, #16
 220              		.cfi_def_cfa_offset 24
ARM GAS  C:\Users\ryan\AppData\Local\Temp\ccgit9Xl.s 			page 6


 221 0004 00AF     		add	r7, sp, #0
 222              		.cfi_def_cfa_register 7
 223 0006 0200     		movs	r2, r0
 224 0008 FB1D     		adds	r3, r7, #7
 225 000a 1A70     		strb	r2, [r3]
  61:substitution.c ****     int i;
  62:substitution.c ****     /* Verify state */
  63:substitution.c ****     if(!verify_state(SUBSTITUTION)) {
 226              		.loc 1 63 0
 227 000c 0320     		movs	r0, #3
 228 000e FFF7FEFF 		bl	verify_state
 229 0012 031E     		subs	r3, r0, #0
 230 0014 00D1     		bne	.LCB171
 231 0016 76E1     		b	.L98	@long jump
 232              	.LCB171:
  64:substitution.c ****         return;
  65:substitution.c ****     }
  66:substitution.c ****     switch(c) {
 233              		.loc 1 66 0
 234 0018 FB1D     		adds	r3, r7, #7
 235 001a 1B78     		ldrb	r3, [r3]
 236 001c 0A3B     		subs	r3, r3, #10
 237 001e 702B     		cmp	r3, #112
 238 0020 00D9     		bls	.LCB176
 239 0022 71E1     		b	.L15	@long jump
 240              	.LCB176:
 241 0024 9A00     		lsls	r2, r3, #2
 242 0026 BA4B     		ldr	r3, .L99
 243 0028 D318     		adds	r3, r2, r3
 244 002a 1B68     		ldr	r3, [r3]
 245 002c 9F46     		mov	pc, r3
 246              		.section	.rodata
 247              		.align	2
 248              	.L19:
 249 0000 08030000 		.word	.L15
 250 0004 08030000 		.word	.L15
 251 0008 08030000 		.word	.L15
 252 000c 08030000 		.word	.L15
 253 0010 08030000 		.word	.L15
 254 0014 08030000 		.word	.L15
 255 0018 08030000 		.word	.L15
 256 001c 08030000 		.word	.L15
 257 0020 08030000 		.word	.L15
 258 0024 08030000 		.word	.L15
 259 0028 08030000 		.word	.L15
 260 002c 08030000 		.word	.L15
 261 0030 08030000 		.word	.L15
 262 0034 08030000 		.word	.L15
 263 0038 08030000 		.word	.L15
 264 003c 08030000 		.word	.L15
 265 0040 08030000 		.word	.L15
 266 0044 08030000 		.word	.L15
 267 0048 08030000 		.word	.L15
 268 004c 08030000 		.word	.L15
 269 0050 08030000 		.word	.L15
 270 0054 08030000 		.word	.L15
 271 0058 08030000 		.word	.L15
ARM GAS  C:\Users\ryan\AppData\Local\Temp\ccgit9Xl.s 			page 7


 272 005c 08030000 		.word	.L15
 273 0060 08030000 		.word	.L15
 274 0064 08030000 		.word	.L15
 275 0068 08030000 		.word	.L15
 276 006c 08030000 		.word	.L15
 277 0070 08030000 		.word	.L15
 278 0074 08030000 		.word	.L15
 279 0078 08030000 		.word	.L15
 280 007c 08030000 		.word	.L15
 281 0080 08030000 		.word	.L15
 282 0084 08030000 		.word	.L15
 283 0088 08030000 		.word	.L15
 284 008c 08030000 		.word	.L15
 285 0090 08030000 		.word	.L15
 286 0094 08030000 		.word	.L15
 287 0098 08030000 		.word	.L15
 288 009c 08030000 		.word	.L15
 289 00a0 08030000 		.word	.L15
 290 00a4 08030000 		.word	.L15
 291 00a8 08030000 		.word	.L15
 292 00ac 08030000 		.word	.L15
 293 00b0 08030000 		.word	.L15
 294 00b4 08030000 		.word	.L15
 295 00b8 08030000 		.word	.L15
 296 00bc 08030000 		.word	.L15
 297 00c0 08030000 		.word	.L15
 298 00c4 08030000 		.word	.L15
 299 00c8 08030000 		.word	.L15
 300 00cc 08030000 		.word	.L15
 301 00d0 08030000 		.word	.L15
 302 00d4 08030000 		.word	.L15
 303 00d8 08030000 		.word	.L15
 304 00dc 2E000000 		.word	.L20
 305 00e0 4A000000 		.word	.L21
 306 00e4 66000000 		.word	.L22
 307 00e8 82000000 		.word	.L23
 308 00ec 9E000000 		.word	.L24
 309 00f0 BA000000 		.word	.L25
 310 00f4 D6000000 		.word	.L26
 311 00f8 F2000000 		.word	.L27
 312 00fc 0E010000 		.word	.L28
 313 0100 2A010000 		.word	.L29
 314 0104 46010000 		.word	.L30
 315 0108 62010000 		.word	.L31
 316 010c 7E010000 		.word	.L32
 317 0110 9A010000 		.word	.L33
 318 0114 B6010000 		.word	.L34
 319 0118 D2010000 		.word	.L35
 320 011c EE010000 		.word	.L36
 321 0120 0A020000 		.word	.L37
 322 0124 26020000 		.word	.L38
 323 0128 42020000 		.word	.L39
 324 012c 5E020000 		.word	.L40
 325 0130 7A020000 		.word	.L41
 326 0134 96020000 		.word	.L42
 327 0138 B2020000 		.word	.L43
 328 013c CE020000 		.word	.L44
ARM GAS  C:\Users\ryan\AppData\Local\Temp\ccgit9Xl.s 			page 8


 329 0140 EA020000 		.word	.L45
 330 0144 08030000 		.word	.L15
 331 0148 08030000 		.word	.L15
 332 014c 08030000 		.word	.L15
 333 0150 08030000 		.word	.L15
 334 0154 08030000 		.word	.L15
 335 0158 08030000 		.word	.L15
 336 015c 2E000000 		.word	.L20
 337 0160 4A000000 		.word	.L21
 338 0164 66000000 		.word	.L22
 339 0168 82000000 		.word	.L23
 340 016c 9E000000 		.word	.L24
 341 0170 BA000000 		.word	.L25
 342 0174 D6000000 		.word	.L26
 343 0178 F2000000 		.word	.L27
 344 017c 0E010000 		.word	.L28
 345 0180 2A010000 		.word	.L29
 346 0184 46010000 		.word	.L30
 347 0188 62010000 		.word	.L31
 348 018c 7E010000 		.word	.L32
 349 0190 9A010000 		.word	.L33
 350 0194 B6010000 		.word	.L34
 351 0198 D2010000 		.word	.L35
 352 019c EE010000 		.word	.L36
 353 01a0 0A020000 		.word	.L37
 354 01a4 26020000 		.word	.L38
 355 01a8 42020000 		.word	.L39
 356 01ac 5E020000 		.word	.L40
 357 01b0 7A020000 		.word	.L41
 358 01b4 96020000 		.word	.L42
 359 01b8 B2020000 		.word	.L43
 360 01bc CE020000 		.word	.L44
 361 01c0 EA020000 		.word	.L45
 362              		.section	.text.substitution_encode
 363              	.L20:
  67:substitution.c ****       case 'A':
  68:substitution.c ****       case 'a':
  69:substitution.c ****         for (i=0; i<1; i++) {
 364              		.loc 1 69 0
 365 002e 0023     		movs	r3, #0
 366 0030 FB60     		str	r3, [r7, #12]
 367 0032 04E0     		b	.L46
 368              	.L47:
  70:substitution.c ****          blink_char();   
 369              		.loc 1 70 0 discriminator 3
 370 0034 FFF7FEFF 		bl	blink_char
  69:substitution.c ****          blink_char();   
 371              		.loc 1 69 0 discriminator 3
 372 0038 FB68     		ldr	r3, [r7, #12]
 373 003a 0133     		adds	r3, r3, #1
 374 003c FB60     		str	r3, [r7, #12]
 375              	.L46:
  69:substitution.c ****          blink_char();   
 376              		.loc 1 69 0 is_stmt 0 discriminator 1
 377 003e FB68     		ldr	r3, [r7, #12]
 378 0040 002B     		cmp	r3, #0
 379 0042 F7DD     		ble	.L47
ARM GAS  C:\Users\ryan\AppData\Local\Temp\ccgit9Xl.s 			page 9


  71:substitution.c ****         }
  72:substitution.c ****         new_char();
 380              		.loc 1 72 0 is_stmt 1
 381 0044 FFF7FEFF 		bl	new_char
  73:substitution.c ****         break;
 382              		.loc 1 73 0
 383 0048 5EE1     		b	.L15
 384              	.L21:
  74:substitution.c ****       case 'B':
  75:substitution.c ****       case 'b':
  76:substitution.c ****         for (i=0; i<2; i++) {
 385              		.loc 1 76 0
 386 004a 0023     		movs	r3, #0
 387 004c FB60     		str	r3, [r7, #12]
 388 004e 04E0     		b	.L48
 389              	.L49:
  77:substitution.c ****          blink_char();   
 390              		.loc 1 77 0 discriminator 3
 391 0050 FFF7FEFF 		bl	blink_char
  76:substitution.c ****          blink_char();   
 392              		.loc 1 76 0 discriminator 3
 393 0054 FB68     		ldr	r3, [r7, #12]
 394 0056 0133     		adds	r3, r3, #1
 395 0058 FB60     		str	r3, [r7, #12]
 396              	.L48:
  76:substitution.c ****          blink_char();   
 397              		.loc 1 76 0 is_stmt 0 discriminator 1
 398 005a FB68     		ldr	r3, [r7, #12]
 399 005c 012B     		cmp	r3, #1
 400 005e F7DD     		ble	.L49
  78:substitution.c ****         }
  79:substitution.c ****         new_char();
 401              		.loc 1 79 0 is_stmt 1
 402 0060 FFF7FEFF 		bl	new_char
  80:substitution.c ****         break;
 403              		.loc 1 80 0
 404 0064 50E1     		b	.L15
 405              	.L22:
  81:substitution.c ****       case 'C':
  82:substitution.c ****       case 'c':
  83:substitution.c ****         for (i=0; i<3; i++) {
 406              		.loc 1 83 0
 407 0066 0023     		movs	r3, #0
 408 0068 FB60     		str	r3, [r7, #12]
 409 006a 04E0     		b	.L50
 410              	.L51:
  84:substitution.c ****          blink_char();   
 411              		.loc 1 84 0 discriminator 3
 412 006c FFF7FEFF 		bl	blink_char
  83:substitution.c ****          blink_char();   
 413              		.loc 1 83 0 discriminator 3
 414 0070 FB68     		ldr	r3, [r7, #12]
 415 0072 0133     		adds	r3, r3, #1
 416 0074 FB60     		str	r3, [r7, #12]
 417              	.L50:
  83:substitution.c ****          blink_char();   
 418              		.loc 1 83 0 is_stmt 0 discriminator 1
ARM GAS  C:\Users\ryan\AppData\Local\Temp\ccgit9Xl.s 			page 10


 419 0076 FB68     		ldr	r3, [r7, #12]
 420 0078 022B     		cmp	r3, #2
 421 007a F7DD     		ble	.L51
  85:substitution.c ****         }
  86:substitution.c ****         new_char();
 422              		.loc 1 86 0 is_stmt 1
 423 007c FFF7FEFF 		bl	new_char
  87:substitution.c ****         break;
 424              		.loc 1 87 0
 425 0080 42E1     		b	.L15
 426              	.L23:
  88:substitution.c ****       case 'D':
  89:substitution.c ****       case 'd':
  90:substitution.c ****         for (i=0; i<4; i++) {
 427              		.loc 1 90 0
 428 0082 0023     		movs	r3, #0
 429 0084 FB60     		str	r3, [r7, #12]
 430 0086 04E0     		b	.L52
 431              	.L53:
  91:substitution.c ****          blink_char();   
 432              		.loc 1 91 0 discriminator 3
 433 0088 FFF7FEFF 		bl	blink_char
  90:substitution.c ****          blink_char();   
 434              		.loc 1 90 0 discriminator 3
 435 008c FB68     		ldr	r3, [r7, #12]
 436 008e 0133     		adds	r3, r3, #1
 437 0090 FB60     		str	r3, [r7, #12]
 438              	.L52:
  90:substitution.c ****          blink_char();   
 439              		.loc 1 90 0 is_stmt 0 discriminator 1
 440 0092 FB68     		ldr	r3, [r7, #12]
 441 0094 032B     		cmp	r3, #3
 442 0096 F7DD     		ble	.L53
  92:substitution.c ****         }
  93:substitution.c ****         new_char();
 443              		.loc 1 93 0 is_stmt 1
 444 0098 FFF7FEFF 		bl	new_char
  94:substitution.c ****         break;
 445              		.loc 1 94 0
 446 009c 34E1     		b	.L15
 447              	.L24:
  95:substitution.c ****        case 'E':
  96:substitution.c ****        case 'e':
  97:substitution.c ****         for (i=0; i<5; i++) {
 448              		.loc 1 97 0
 449 009e 0023     		movs	r3, #0
 450 00a0 FB60     		str	r3, [r7, #12]
 451 00a2 04E0     		b	.L54
 452              	.L55:
  98:substitution.c ****          blink_char();   
 453              		.loc 1 98 0 discriminator 3
 454 00a4 FFF7FEFF 		bl	blink_char
  97:substitution.c ****          blink_char();   
 455              		.loc 1 97 0 discriminator 3
 456 00a8 FB68     		ldr	r3, [r7, #12]
 457 00aa 0133     		adds	r3, r3, #1
 458 00ac FB60     		str	r3, [r7, #12]
ARM GAS  C:\Users\ryan\AppData\Local\Temp\ccgit9Xl.s 			page 11


 459              	.L54:
  97:substitution.c ****          blink_char();   
 460              		.loc 1 97 0 is_stmt 0 discriminator 1
 461 00ae FB68     		ldr	r3, [r7, #12]
 462 00b0 042B     		cmp	r3, #4
 463 00b2 F7DD     		ble	.L55
  99:substitution.c ****         }
 100:substitution.c ****         new_char();
 464              		.loc 1 100 0 is_stmt 1
 465 00b4 FFF7FEFF 		bl	new_char
 101:substitution.c ****         break;
 466              		.loc 1 101 0
 467 00b8 26E1     		b	.L15
 468              	.L25:
 102:substitution.c ****        case 'F':
 103:substitution.c ****        case 'f':
 104:substitution.c ****         for (i=0; i<6; i++) {
 469              		.loc 1 104 0
 470 00ba 0023     		movs	r3, #0
 471 00bc FB60     		str	r3, [r7, #12]
 472 00be 04E0     		b	.L56
 473              	.L57:
 105:substitution.c ****          blink_char();   
 474              		.loc 1 105 0 discriminator 3
 475 00c0 FFF7FEFF 		bl	blink_char
 104:substitution.c ****          blink_char();   
 476              		.loc 1 104 0 discriminator 3
 477 00c4 FB68     		ldr	r3, [r7, #12]
 478 00c6 0133     		adds	r3, r3, #1
 479 00c8 FB60     		str	r3, [r7, #12]
 480              	.L56:
 104:substitution.c ****          blink_char();   
 481              		.loc 1 104 0 is_stmt 0 discriminator 1
 482 00ca FB68     		ldr	r3, [r7, #12]
 483 00cc 052B     		cmp	r3, #5
 484 00ce F7DD     		ble	.L57
 106:substitution.c ****         }
 107:substitution.c ****         new_char();
 485              		.loc 1 107 0 is_stmt 1
 486 00d0 FFF7FEFF 		bl	new_char
 108:substitution.c ****         break;
 487              		.loc 1 108 0
 488 00d4 18E1     		b	.L15
 489              	.L26:
 109:substitution.c ****        case 'G':
 110:substitution.c ****        case 'g':
 111:substitution.c ****         for (i=0; i<7; i++) {
 490              		.loc 1 111 0
 491 00d6 0023     		movs	r3, #0
 492 00d8 FB60     		str	r3, [r7, #12]
 493 00da 04E0     		b	.L58
 494              	.L59:
 112:substitution.c ****          blink_char();   
 495              		.loc 1 112 0 discriminator 3
 496 00dc FFF7FEFF 		bl	blink_char
 111:substitution.c ****          blink_char();   
 497              		.loc 1 111 0 discriminator 3
ARM GAS  C:\Users\ryan\AppData\Local\Temp\ccgit9Xl.s 			page 12


 498 00e0 FB68     		ldr	r3, [r7, #12]
 499 00e2 0133     		adds	r3, r3, #1
 500 00e4 FB60     		str	r3, [r7, #12]
 501              	.L58:
 111:substitution.c ****          blink_char();   
 502              		.loc 1 111 0 is_stmt 0 discriminator 1
 503 00e6 FB68     		ldr	r3, [r7, #12]
 504 00e8 062B     		cmp	r3, #6
 505 00ea F7DD     		ble	.L59
 113:substitution.c ****         }
 114:substitution.c ****         new_char();
 506              		.loc 1 114 0 is_stmt 1
 507 00ec FFF7FEFF 		bl	new_char
 115:substitution.c ****         break;
 508              		.loc 1 115 0
 509 00f0 0AE1     		b	.L15
 510              	.L27:
 116:substitution.c ****        case 'H':
 117:substitution.c ****        case 'h':
 118:substitution.c ****         for (i=0; i<8; i++) {
 511              		.loc 1 118 0
 512 00f2 0023     		movs	r3, #0
 513 00f4 FB60     		str	r3, [r7, #12]
 514 00f6 04E0     		b	.L60
 515              	.L61:
 119:substitution.c ****          blink_char();   
 516              		.loc 1 119 0 discriminator 3
 517 00f8 FFF7FEFF 		bl	blink_char
 118:substitution.c ****          blink_char();   
 518              		.loc 1 118 0 discriminator 3
 519 00fc FB68     		ldr	r3, [r7, #12]
 520 00fe 0133     		adds	r3, r3, #1
 521 0100 FB60     		str	r3, [r7, #12]
 522              	.L60:
 118:substitution.c ****          blink_char();   
 523              		.loc 1 118 0 is_stmt 0 discriminator 1
 524 0102 FB68     		ldr	r3, [r7, #12]
 525 0104 072B     		cmp	r3, #7
 526 0106 F7DD     		ble	.L61
 120:substitution.c ****         }
 121:substitution.c ****         new_char();
 527              		.loc 1 121 0 is_stmt 1
 528 0108 FFF7FEFF 		bl	new_char
 122:substitution.c ****         break;
 529              		.loc 1 122 0
 530 010c FCE0     		b	.L15
 531              	.L28:
 123:substitution.c ****        case 'I':
 124:substitution.c ****        case 'i':
 125:substitution.c ****         for (i=0; i<9; i++) {
 532              		.loc 1 125 0
 533 010e 0023     		movs	r3, #0
 534 0110 FB60     		str	r3, [r7, #12]
 535 0112 04E0     		b	.L62
 536              	.L63:
 126:substitution.c ****          blink_char();   
 537              		.loc 1 126 0 discriminator 3
ARM GAS  C:\Users\ryan\AppData\Local\Temp\ccgit9Xl.s 			page 13


 538 0114 FFF7FEFF 		bl	blink_char
 125:substitution.c ****          blink_char();   
 539              		.loc 1 125 0 discriminator 3
 540 0118 FB68     		ldr	r3, [r7, #12]
 541 011a 0133     		adds	r3, r3, #1
 542 011c FB60     		str	r3, [r7, #12]
 543              	.L62:
 125:substitution.c ****          blink_char();   
 544              		.loc 1 125 0 is_stmt 0 discriminator 1
 545 011e FB68     		ldr	r3, [r7, #12]
 546 0120 082B     		cmp	r3, #8
 547 0122 F7DD     		ble	.L63
 127:substitution.c ****         }
 128:substitution.c ****         new_char();
 548              		.loc 1 128 0 is_stmt 1
 549 0124 FFF7FEFF 		bl	new_char
 129:substitution.c ****         break;
 550              		.loc 1 129 0
 551 0128 EEE0     		b	.L15
 552              	.L29:
 130:substitution.c ****        case 'J':
 131:substitution.c ****        case 'j':
 132:substitution.c ****         for (i=0; i<10; i++) {
 553              		.loc 1 132 0
 554 012a 0023     		movs	r3, #0
 555 012c FB60     		str	r3, [r7, #12]
 556 012e 04E0     		b	.L64
 557              	.L65:
 133:substitution.c ****          blink_char();   
 558              		.loc 1 133 0 discriminator 3
 559 0130 FFF7FEFF 		bl	blink_char
 132:substitution.c ****          blink_char();   
 560              		.loc 1 132 0 discriminator 3
 561 0134 FB68     		ldr	r3, [r7, #12]
 562 0136 0133     		adds	r3, r3, #1
 563 0138 FB60     		str	r3, [r7, #12]
 564              	.L64:
 132:substitution.c ****          blink_char();   
 565              		.loc 1 132 0 is_stmt 0 discriminator 1
 566 013a FB68     		ldr	r3, [r7, #12]
 567 013c 092B     		cmp	r3, #9
 568 013e F7DD     		ble	.L65
 134:substitution.c ****         }
 135:substitution.c ****         new_char();
 569              		.loc 1 135 0 is_stmt 1
 570 0140 FFF7FEFF 		bl	new_char
 136:substitution.c ****         break;
 571              		.loc 1 136 0
 572 0144 E0E0     		b	.L15
 573              	.L30:
 137:substitution.c ****        case 'K':
 138:substitution.c ****        case 'k':
 139:substitution.c ****         for (i=0; i<11; i++) {
 574              		.loc 1 139 0
 575 0146 0023     		movs	r3, #0
 576 0148 FB60     		str	r3, [r7, #12]
 577 014a 04E0     		b	.L66
ARM GAS  C:\Users\ryan\AppData\Local\Temp\ccgit9Xl.s 			page 14


 578              	.L67:
 140:substitution.c ****          blink_char();   
 579              		.loc 1 140 0 discriminator 3
 580 014c FFF7FEFF 		bl	blink_char
 139:substitution.c ****          blink_char();   
 581              		.loc 1 139 0 discriminator 3
 582 0150 FB68     		ldr	r3, [r7, #12]
 583 0152 0133     		adds	r3, r3, #1
 584 0154 FB60     		str	r3, [r7, #12]
 585              	.L66:
 139:substitution.c ****          blink_char();   
 586              		.loc 1 139 0 is_stmt 0 discriminator 1
 587 0156 FB68     		ldr	r3, [r7, #12]
 588 0158 0A2B     		cmp	r3, #10
 589 015a F7DD     		ble	.L67
 141:substitution.c ****         }
 142:substitution.c ****         new_char();
 590              		.loc 1 142 0 is_stmt 1
 591 015c FFF7FEFF 		bl	new_char
 143:substitution.c ****         break;
 592              		.loc 1 143 0
 593 0160 D2E0     		b	.L15
 594              	.L31:
 144:substitution.c ****        case 'L':
 145:substitution.c ****        case 'l':
 146:substitution.c ****         for (i=0; i<12; i++) {
 595              		.loc 1 146 0
 596 0162 0023     		movs	r3, #0
 597 0164 FB60     		str	r3, [r7, #12]
 598 0166 04E0     		b	.L68
 599              	.L69:
 147:substitution.c ****          blink_char();   
 600              		.loc 1 147 0 discriminator 3
 601 0168 FFF7FEFF 		bl	blink_char
 146:substitution.c ****          blink_char();   
 602              		.loc 1 146 0 discriminator 3
 603 016c FB68     		ldr	r3, [r7, #12]
 604 016e 0133     		adds	r3, r3, #1
 605 0170 FB60     		str	r3, [r7, #12]
 606              	.L68:
 146:substitution.c ****          blink_char();   
 607              		.loc 1 146 0 is_stmt 0 discriminator 1
 608 0172 FB68     		ldr	r3, [r7, #12]
 609 0174 0B2B     		cmp	r3, #11
 610 0176 F7DD     		ble	.L69
 148:substitution.c ****         }
 149:substitution.c ****         new_char();
 611              		.loc 1 149 0 is_stmt 1
 612 0178 FFF7FEFF 		bl	new_char
 150:substitution.c ****         break;
 613              		.loc 1 150 0
 614 017c C4E0     		b	.L15
 615              	.L32:
 151:substitution.c ****        case 'M':
 152:substitution.c ****        case 'm':
 153:substitution.c ****         for (i=0; i<13; i++) {
 616              		.loc 1 153 0
ARM GAS  C:\Users\ryan\AppData\Local\Temp\ccgit9Xl.s 			page 15


 617 017e 0023     		movs	r3, #0
 618 0180 FB60     		str	r3, [r7, #12]
 619 0182 04E0     		b	.L70
 620              	.L71:
 154:substitution.c ****          blink_char();   
 621              		.loc 1 154 0 discriminator 3
 622 0184 FFF7FEFF 		bl	blink_char
 153:substitution.c ****          blink_char();   
 623              		.loc 1 153 0 discriminator 3
 624 0188 FB68     		ldr	r3, [r7, #12]
 625 018a 0133     		adds	r3, r3, #1
 626 018c FB60     		str	r3, [r7, #12]
 627              	.L70:
 153:substitution.c ****          blink_char();   
 628              		.loc 1 153 0 is_stmt 0 discriminator 1
 629 018e FB68     		ldr	r3, [r7, #12]
 630 0190 0C2B     		cmp	r3, #12
 631 0192 F7DD     		ble	.L71
 155:substitution.c ****         }
 156:substitution.c ****         new_char();
 632              		.loc 1 156 0 is_stmt 1
 633 0194 FFF7FEFF 		bl	new_char
 157:substitution.c ****         break;
 634              		.loc 1 157 0
 635 0198 B6E0     		b	.L15
 636              	.L33:
 158:substitution.c ****        case 'N':
 159:substitution.c ****        case 'n':
 160:substitution.c ****         for (i=0; i<14; i++) {
 637              		.loc 1 160 0
 638 019a 0023     		movs	r3, #0
 639 019c FB60     		str	r3, [r7, #12]
 640 019e 04E0     		b	.L72
 641              	.L73:
 161:substitution.c ****          blink_char();   
 642              		.loc 1 161 0 discriminator 3
 643 01a0 FFF7FEFF 		bl	blink_char
 160:substitution.c ****          blink_char();   
 644              		.loc 1 160 0 discriminator 3
 645 01a4 FB68     		ldr	r3, [r7, #12]
 646 01a6 0133     		adds	r3, r3, #1
 647 01a8 FB60     		str	r3, [r7, #12]
 648              	.L72:
 160:substitution.c ****          blink_char();   
 649              		.loc 1 160 0 is_stmt 0 discriminator 1
 650 01aa FB68     		ldr	r3, [r7, #12]
 651 01ac 0D2B     		cmp	r3, #13
 652 01ae F7DD     		ble	.L73
 162:substitution.c ****         }
 163:substitution.c ****         new_char();
 653              		.loc 1 163 0 is_stmt 1
 654 01b0 FFF7FEFF 		bl	new_char
 164:substitution.c ****         break;
 655              		.loc 1 164 0
 656 01b4 A8E0     		b	.L15
 657              	.L34:
 165:substitution.c ****        case 'O':
ARM GAS  C:\Users\ryan\AppData\Local\Temp\ccgit9Xl.s 			page 16


 166:substitution.c ****        case 'o':
 167:substitution.c ****         for (i=0; i<15; i++) {
 658              		.loc 1 167 0
 659 01b6 0023     		movs	r3, #0
 660 01b8 FB60     		str	r3, [r7, #12]
 661 01ba 04E0     		b	.L74
 662              	.L75:
 168:substitution.c ****          blink_char();   
 663              		.loc 1 168 0 discriminator 3
 664 01bc FFF7FEFF 		bl	blink_char
 167:substitution.c ****          blink_char();   
 665              		.loc 1 167 0 discriminator 3
 666 01c0 FB68     		ldr	r3, [r7, #12]
 667 01c2 0133     		adds	r3, r3, #1
 668 01c4 FB60     		str	r3, [r7, #12]
 669              	.L74:
 167:substitution.c ****          blink_char();   
 670              		.loc 1 167 0 is_stmt 0 discriminator 1
 671 01c6 FB68     		ldr	r3, [r7, #12]
 672 01c8 0E2B     		cmp	r3, #14
 673 01ca F7DD     		ble	.L75
 169:substitution.c ****         }
 170:substitution.c ****         new_char();
 674              		.loc 1 170 0 is_stmt 1
 675 01cc FFF7FEFF 		bl	new_char
 171:substitution.c ****         break;
 676              		.loc 1 171 0
 677 01d0 9AE0     		b	.L15
 678              	.L35:
 172:substitution.c ****        case 'P':
 173:substitution.c ****        case 'p':
 174:substitution.c ****         for (i=0; i<16; i++) {
 679              		.loc 1 174 0
 680 01d2 0023     		movs	r3, #0
 681 01d4 FB60     		str	r3, [r7, #12]
 682 01d6 04E0     		b	.L76
 683              	.L77:
 175:substitution.c ****          blink_char();   
 684              		.loc 1 175 0 discriminator 3
 685 01d8 FFF7FEFF 		bl	blink_char
 174:substitution.c ****          blink_char();   
 686              		.loc 1 174 0 discriminator 3
 687 01dc FB68     		ldr	r3, [r7, #12]
 688 01de 0133     		adds	r3, r3, #1
 689 01e0 FB60     		str	r3, [r7, #12]
 690              	.L76:
 174:substitution.c ****          blink_char();   
 691              		.loc 1 174 0 is_stmt 0 discriminator 1
 692 01e2 FB68     		ldr	r3, [r7, #12]
 693 01e4 0F2B     		cmp	r3, #15
 694 01e6 F7DD     		ble	.L77
 176:substitution.c ****         }
 177:substitution.c ****         new_char();
 695              		.loc 1 177 0 is_stmt 1
 696 01e8 FFF7FEFF 		bl	new_char
 178:substitution.c ****         break;
 697              		.loc 1 178 0
ARM GAS  C:\Users\ryan\AppData\Local\Temp\ccgit9Xl.s 			page 17


 698 01ec 8CE0     		b	.L15
 699              	.L36:
 179:substitution.c ****        case 'Q':
 180:substitution.c ****        case 'q':
 181:substitution.c ****         for (i=0; i<17; i++) {
 700              		.loc 1 181 0
 701 01ee 0023     		movs	r3, #0
 702 01f0 FB60     		str	r3, [r7, #12]
 703 01f2 04E0     		b	.L78
 704              	.L79:
 182:substitution.c ****          blink_char();   
 705              		.loc 1 182 0 discriminator 3
 706 01f4 FFF7FEFF 		bl	blink_char
 181:substitution.c ****          blink_char();   
 707              		.loc 1 181 0 discriminator 3
 708 01f8 FB68     		ldr	r3, [r7, #12]
 709 01fa 0133     		adds	r3, r3, #1
 710 01fc FB60     		str	r3, [r7, #12]
 711              	.L78:
 181:substitution.c ****          blink_char();   
 712              		.loc 1 181 0 is_stmt 0 discriminator 1
 713 01fe FB68     		ldr	r3, [r7, #12]
 714 0200 102B     		cmp	r3, #16
 715 0202 F7DD     		ble	.L79
 183:substitution.c ****         }
 184:substitution.c ****         new_char();
 716              		.loc 1 184 0 is_stmt 1
 717 0204 FFF7FEFF 		bl	new_char
 185:substitution.c ****         break;
 718              		.loc 1 185 0
 719 0208 7EE0     		b	.L15
 720              	.L37:
 186:substitution.c ****        case 'R':
 187:substitution.c ****        case 'r':
 188:substitution.c ****         for (i=0; i<18; i++) {
 721              		.loc 1 188 0
 722 020a 0023     		movs	r3, #0
 723 020c FB60     		str	r3, [r7, #12]
 724 020e 04E0     		b	.L80
 725              	.L81:
 189:substitution.c ****          blink_char();   
 726              		.loc 1 189 0 discriminator 3
 727 0210 FFF7FEFF 		bl	blink_char
 188:substitution.c ****          blink_char();   
 728              		.loc 1 188 0 discriminator 3
 729 0214 FB68     		ldr	r3, [r7, #12]
 730 0216 0133     		adds	r3, r3, #1
 731 0218 FB60     		str	r3, [r7, #12]
 732              	.L80:
 188:substitution.c ****          blink_char();   
 733              		.loc 1 188 0 is_stmt 0 discriminator 1
 734 021a FB68     		ldr	r3, [r7, #12]
 735 021c 112B     		cmp	r3, #17
 736 021e F7DD     		ble	.L81
 190:substitution.c ****         }
 191:substitution.c ****         new_char();
 737              		.loc 1 191 0 is_stmt 1
ARM GAS  C:\Users\ryan\AppData\Local\Temp\ccgit9Xl.s 			page 18


 738 0220 FFF7FEFF 		bl	new_char
 192:substitution.c ****         break;
 739              		.loc 1 192 0
 740 0224 70E0     		b	.L15
 741              	.L38:
 193:substitution.c ****        case 'S':
 194:substitution.c ****        case 's':
 195:substitution.c ****         for (i=0; i<19; i++) {
 742              		.loc 1 195 0
 743 0226 0023     		movs	r3, #0
 744 0228 FB60     		str	r3, [r7, #12]
 745 022a 04E0     		b	.L82
 746              	.L83:
 196:substitution.c ****          blink_char();   
 747              		.loc 1 196 0 discriminator 3
 748 022c FFF7FEFF 		bl	blink_char
 195:substitution.c ****          blink_char();   
 749              		.loc 1 195 0 discriminator 3
 750 0230 FB68     		ldr	r3, [r7, #12]
 751 0232 0133     		adds	r3, r3, #1
 752 0234 FB60     		str	r3, [r7, #12]
 753              	.L82:
 195:substitution.c ****          blink_char();   
 754              		.loc 1 195 0 is_stmt 0 discriminator 1
 755 0236 FB68     		ldr	r3, [r7, #12]
 756 0238 122B     		cmp	r3, #18
 757 023a F7DD     		ble	.L83
 197:substitution.c ****         }
 198:substitution.c ****         new_char();
 758              		.loc 1 198 0 is_stmt 1
 759 023c FFF7FEFF 		bl	new_char
 199:substitution.c ****         break;
 760              		.loc 1 199 0
 761 0240 62E0     		b	.L15
 762              	.L39:
 200:substitution.c ****        case 'T':
 201:substitution.c ****        case 't':
 202:substitution.c ****         for (i=0; i<20; i++) {
 763              		.loc 1 202 0
 764 0242 0023     		movs	r3, #0
 765 0244 FB60     		str	r3, [r7, #12]
 766 0246 04E0     		b	.L84
 767              	.L85:
 203:substitution.c ****          blink_char();   
 768              		.loc 1 203 0 discriminator 3
 769 0248 FFF7FEFF 		bl	blink_char
 202:substitution.c ****          blink_char();   
 770              		.loc 1 202 0 discriminator 3
 771 024c FB68     		ldr	r3, [r7, #12]
 772 024e 0133     		adds	r3, r3, #1
 773 0250 FB60     		str	r3, [r7, #12]
 774              	.L84:
 202:substitution.c ****          blink_char();   
 775              		.loc 1 202 0 is_stmt 0 discriminator 1
 776 0252 FB68     		ldr	r3, [r7, #12]
 777 0254 132B     		cmp	r3, #19
 778 0256 F7DD     		ble	.L85
ARM GAS  C:\Users\ryan\AppData\Local\Temp\ccgit9Xl.s 			page 19


 204:substitution.c ****         }
 205:substitution.c ****         new_char();
 779              		.loc 1 205 0 is_stmt 1
 780 0258 FFF7FEFF 		bl	new_char
 206:substitution.c ****         break;
 781              		.loc 1 206 0
 782 025c 54E0     		b	.L15
 783              	.L40:
 207:substitution.c ****        case 'U':
 208:substitution.c ****        case 'u':
 209:substitution.c ****         for (i=0; i<21; i++) {
 784              		.loc 1 209 0
 785 025e 0023     		movs	r3, #0
 786 0260 FB60     		str	r3, [r7, #12]
 787 0262 04E0     		b	.L86
 788              	.L87:
 210:substitution.c ****          blink_char();   
 789              		.loc 1 210 0 discriminator 3
 790 0264 FFF7FEFF 		bl	blink_char
 209:substitution.c ****          blink_char();   
 791              		.loc 1 209 0 discriminator 3
 792 0268 FB68     		ldr	r3, [r7, #12]
 793 026a 0133     		adds	r3, r3, #1
 794 026c FB60     		str	r3, [r7, #12]
 795              	.L86:
 209:substitution.c ****          blink_char();   
 796              		.loc 1 209 0 is_stmt 0 discriminator 1
 797 026e FB68     		ldr	r3, [r7, #12]
 798 0270 142B     		cmp	r3, #20
 799 0272 F7DD     		ble	.L87
 211:substitution.c ****         }
 212:substitution.c ****         new_char();
 800              		.loc 1 212 0 is_stmt 1
 801 0274 FFF7FEFF 		bl	new_char
 213:substitution.c ****         break;
 802              		.loc 1 213 0
 803 0278 46E0     		b	.L15
 804              	.L41:
 214:substitution.c ****        case 'V':
 215:substitution.c ****        case 'v':
 216:substitution.c ****         for (i=0; i<22; i++) {
 805              		.loc 1 216 0
 806 027a 0023     		movs	r3, #0
 807 027c FB60     		str	r3, [r7, #12]
 808 027e 04E0     		b	.L88
 809              	.L89:
 217:substitution.c ****          blink_char();   
 810              		.loc 1 217 0 discriminator 3
 811 0280 FFF7FEFF 		bl	blink_char
 216:substitution.c ****          blink_char();   
 812              		.loc 1 216 0 discriminator 3
 813 0284 FB68     		ldr	r3, [r7, #12]
 814 0286 0133     		adds	r3, r3, #1
 815 0288 FB60     		str	r3, [r7, #12]
 816              	.L88:
 216:substitution.c ****          blink_char();   
 817              		.loc 1 216 0 is_stmt 0 discriminator 1
ARM GAS  C:\Users\ryan\AppData\Local\Temp\ccgit9Xl.s 			page 20


 818 028a FB68     		ldr	r3, [r7, #12]
 819 028c 152B     		cmp	r3, #21
 820 028e F7DD     		ble	.L89
 218:substitution.c ****         }
 219:substitution.c ****         new_char();
 821              		.loc 1 219 0 is_stmt 1
 822 0290 FFF7FEFF 		bl	new_char
 220:substitution.c ****         break;
 823              		.loc 1 220 0
 824 0294 38E0     		b	.L15
 825              	.L42:
 221:substitution.c ****        case 'W':
 222:substitution.c ****        case 'w':
 223:substitution.c ****         for (i=0; i<23; i++) {
 826              		.loc 1 223 0
 827 0296 0023     		movs	r3, #0
 828 0298 FB60     		str	r3, [r7, #12]
 829 029a 04E0     		b	.L90
 830              	.L91:
 224:substitution.c ****          blink_char();   
 831              		.loc 1 224 0 discriminator 3
 832 029c FFF7FEFF 		bl	blink_char
 223:substitution.c ****          blink_char();   
 833              		.loc 1 223 0 discriminator 3
 834 02a0 FB68     		ldr	r3, [r7, #12]
 835 02a2 0133     		adds	r3, r3, #1
 836 02a4 FB60     		str	r3, [r7, #12]
 837              	.L90:
 223:substitution.c ****          blink_char();   
 838              		.loc 1 223 0 is_stmt 0 discriminator 1
 839 02a6 FB68     		ldr	r3, [r7, #12]
 840 02a8 162B     		cmp	r3, #22
 841 02aa F7DD     		ble	.L91
 225:substitution.c ****         }
 226:substitution.c ****         new_char();
 842              		.loc 1 226 0 is_stmt 1
 843 02ac FFF7FEFF 		bl	new_char
 227:substitution.c ****         break;
 844              		.loc 1 227 0
 845 02b0 2AE0     		b	.L15
 846              	.L43:
 228:substitution.c ****        case 'X':
 229:substitution.c ****        case 'x':
 230:substitution.c ****         for (i=0; i<24; i++) {
 847              		.loc 1 230 0
 848 02b2 0023     		movs	r3, #0
 849 02b4 FB60     		str	r3, [r7, #12]
 850 02b6 04E0     		b	.L92
 851              	.L93:
 231:substitution.c ****          blink_char();   
 852              		.loc 1 231 0 discriminator 3
 853 02b8 FFF7FEFF 		bl	blink_char
 230:substitution.c ****          blink_char();   
 854              		.loc 1 230 0 discriminator 3
 855 02bc FB68     		ldr	r3, [r7, #12]
 856 02be 0133     		adds	r3, r3, #1
 857 02c0 FB60     		str	r3, [r7, #12]
ARM GAS  C:\Users\ryan\AppData\Local\Temp\ccgit9Xl.s 			page 21


 858              	.L92:
 230:substitution.c ****          blink_char();   
 859              		.loc 1 230 0 is_stmt 0 discriminator 1
 860 02c2 FB68     		ldr	r3, [r7, #12]
 861 02c4 172B     		cmp	r3, #23
 862 02c6 F7DD     		ble	.L93
 232:substitution.c ****         }
 233:substitution.c ****         new_char();
 863              		.loc 1 233 0 is_stmt 1
 864 02c8 FFF7FEFF 		bl	new_char
 234:substitution.c ****         break;
 865              		.loc 1 234 0
 866 02cc 1CE0     		b	.L15
 867              	.L44:
 235:substitution.c ****        case 'Y':
 236:substitution.c ****        case 'y':
 237:substitution.c ****         for (i=0; i<25; i++) {
 868              		.loc 1 237 0
 869 02ce 0023     		movs	r3, #0
 870 02d0 FB60     		str	r3, [r7, #12]
 871 02d2 04E0     		b	.L94
 872              	.L95:
 238:substitution.c ****          blink_char();   
 873              		.loc 1 238 0 discriminator 3
 874 02d4 FFF7FEFF 		bl	blink_char
 237:substitution.c ****          blink_char();   
 875              		.loc 1 237 0 discriminator 3
 876 02d8 FB68     		ldr	r3, [r7, #12]
 877 02da 0133     		adds	r3, r3, #1
 878 02dc FB60     		str	r3, [r7, #12]
 879              	.L94:
 237:substitution.c ****          blink_char();   
 880              		.loc 1 237 0 is_stmt 0 discriminator 1
 881 02de FB68     		ldr	r3, [r7, #12]
 882 02e0 182B     		cmp	r3, #24
 883 02e2 F7DD     		ble	.L95
 239:substitution.c ****         }
 240:substitution.c ****         new_char();
 884              		.loc 1 240 0 is_stmt 1
 885 02e4 FFF7FEFF 		bl	new_char
 241:substitution.c ****         break;
 886              		.loc 1 241 0
 887 02e8 0EE0     		b	.L15
 888              	.L45:
 242:substitution.c ****        case 'Z':
 243:substitution.c ****        case 'z':
 244:substitution.c ****         for (i=0; i<26; i++) {
 889              		.loc 1 244 0
 890 02ea 0023     		movs	r3, #0
 891 02ec FB60     		str	r3, [r7, #12]
 892 02ee 04E0     		b	.L96
 893              	.L97:
 245:substitution.c ****          blink_char();   
 894              		.loc 1 245 0 discriminator 3
 895 02f0 FFF7FEFF 		bl	blink_char
 244:substitution.c ****          blink_char();   
 896              		.loc 1 244 0 discriminator 3
ARM GAS  C:\Users\ryan\AppData\Local\Temp\ccgit9Xl.s 			page 22


 897 02f4 FB68     		ldr	r3, [r7, #12]
 898 02f6 0133     		adds	r3, r3, #1
 899 02f8 FB60     		str	r3, [r7, #12]
 900              	.L96:
 244:substitution.c ****          blink_char();   
 901              		.loc 1 244 0 is_stmt 0 discriminator 1
 902 02fa FB68     		ldr	r3, [r7, #12]
 903 02fc 192B     		cmp	r3, #25
 904 02fe F7DD     		ble	.L97
 246:substitution.c ****         }
 247:substitution.c ****         new_char();
 905              		.loc 1 247 0 is_stmt 1
 906 0300 FFF7FEFF 		bl	new_char
 248:substitution.c ****         break;
 907              		.loc 1 248 0
 908 0304 00E0     		b	.L15
 909              	.L98:
  64:substitution.c ****     }
 910              		.loc 1 64 0
 911 0306 C046     		nop
 912              	.L15:
 249:substitution.c ****        case '\n':
 250:substitution.c ****         break;
 251:substitution.c ****    }
 252:substitution.c **** }
 913              		.loc 1 252 0
 914 0308 BD46     		mov	sp, r7
 915 030a 04B0     		add	sp, sp, #16
 916              		@ sp needed
 917 030c 80BD     		pop	{r7, pc}
 918              	.L100:
 919 030e C046     		.align	2
 920              	.L99:
 921 0310 00000000 		.word	.L19
 922              		.cfi_endproc
 923              	.LFE35:
 924              		.size	substitution_encode, .-substitution_encode
 925              		.section	.text.substitution_message,"ax",%progbits
 926              		.align	2
 927              		.global	substitution_message
 928              		.code	16
 929              		.thumb_func
 930              		.type	substitution_message, %function
 931              	substitution_message:
 932              	.LFB36:
 253:substitution.c **** 
 254:substitution.c **** void substitution_message(char* message) {
 933              		.loc 1 254 0
 934              		.cfi_startproc
 935              		@ args = 0, pretend = 0, frame = 16
 936              		@ frame_needed = 1, uses_anonymous_args = 0
 937 0000 80B5     		push	{r7, lr}
 938              		.cfi_def_cfa_offset 8
 939              		.cfi_offset 7, -8
 940              		.cfi_offset 14, -4
 941 0002 84B0     		sub	sp, sp, #16
 942              		.cfi_def_cfa_offset 24
ARM GAS  C:\Users\ryan\AppData\Local\Temp\ccgit9Xl.s 			page 23


 943 0004 00AF     		add	r7, sp, #0
 944              		.cfi_def_cfa_register 7
 945 0006 7860     		str	r0, [r7, #4]
 255:substitution.c ****     unsigned int i;
 256:substitution.c ****     
 257:substitution.c ****     new_message_substitution();
 946              		.loc 1 257 0
 947 0008 FFF7FEFF 		bl	new_message_substitution
 258:substitution.c ****     
 259:substitution.c ****     for (i=0; i < strlen(message); i++) {
 948              		.loc 1 259 0
 949 000c 0023     		movs	r3, #0
 950 000e FB60     		str	r3, [r7, #12]
 951 0010 0EE0     		b	.L102
 952              	.L105:
 260:substitution.c ****         /* Verify state */
 261:substitution.c ****         if(!verify_state(SUBSTITUTION)) {
 953              		.loc 1 261 0
 954 0012 0320     		movs	r0, #3
 955 0014 FFF7FEFF 		bl	verify_state
 956 0018 031E     		subs	r3, r0, #0
 957 001a 12D0     		beq	.L106
 262:substitution.c ****             return;
 263:substitution.c ****         }
 264:substitution.c ****         substitution_encode(message[i]);
 958              		.loc 1 264 0 discriminator 2
 959 001c 7A68     		ldr	r2, [r7, #4]
 960 001e FB68     		ldr	r3, [r7, #12]
 961 0020 D318     		adds	r3, r2, r3
 962 0022 1B78     		ldrb	r3, [r3]
 963 0024 1800     		movs	r0, r3
 964 0026 FFF7FEFF 		bl	substitution_encode
 259:substitution.c ****         /* Verify state */
 965              		.loc 1 259 0 discriminator 2
 966 002a FB68     		ldr	r3, [r7, #12]
 967 002c 0133     		adds	r3, r3, #1
 968 002e FB60     		str	r3, [r7, #12]
 969              	.L102:
 259:substitution.c ****         /* Verify state */
 970              		.loc 1 259 0 is_stmt 0 discriminator 1
 971 0030 7B68     		ldr	r3, [r7, #4]
 972 0032 1800     		movs	r0, r3
 973 0034 FFF7FEFF 		bl	strlen
 974 0038 0200     		movs	r2, r0
 975 003a FB68     		ldr	r3, [r7, #12]
 976 003c 9A42     		cmp	r2, r3
 977 003e E8D8     		bhi	.L105
 978 0040 00E0     		b	.L101
 979              	.L106:
 262:substitution.c ****             return;
 980              		.loc 1 262 0 is_stmt 1
 981 0042 C046     		nop
 982              	.L101:
 265:substitution.c ****     }
 266:substitution.c **** }
 983              		.loc 1 266 0
 984 0044 BD46     		mov	sp, r7
ARM GAS  C:\Users\ryan\AppData\Local\Temp\ccgit9Xl.s 			page 24


 985 0046 04B0     		add	sp, sp, #16
 986              		@ sp needed
 987 0048 80BD     		pop	{r7, pc}
 988              		.cfi_endproc
 989              	.LFE36:
 990              		.size	substitution_message, .-substitution_message
 991 004a C046     		.text
 992              	.Letext0:
 993              		.file 2 "Generated_Source\\PSoC4/cytypes.h"